	.file	"matrix.c"
# GNU C (GCC) version 4.9.2 20150212 (Red Hat 4.9.2-6) (x86_64-redhat-linux)
#	compiled by GNU C version 4.9.2 20150212 (Red Hat 4.9.2-6), GMP version 6.0.0, MPFR version 3.1.2, MPC version 1.0.2
# GGC heuristics: --param ggc-min-expand=100 --param ggc-min-heapsize=131072
# options passed:  -D_REENTRANT matrix.c -march=haswell -mmmx -mno-3dnow
# -msse -msse2 -msse3 -mssse3 -mno-sse4a -mcx16 -msahf -mmovbe -maes
# -mno-sha -mpclmul -mpopcnt -mabm -mno-lwp -mfma -mno-fma4 -mno-xop -mbmi
# -mbmi2 -mno-tbm -mavx -mavx2 -msse4.2 -msse4.1 -mlzcnt -mno-rtm -mno-hle
# -mrdrnd -mf16c -mfsgsbase -mno-rdseed -mno-prfchw -mno-adx -mfxsr -mxsave
# -mxsaveopt -mno-avx512f -mno-avx512er -mno-avx512cd -mno-avx512pf
# -mno-prefetchwt1 --param l1-cache-size=32 --param l1-cache-line-size=64
# --param l2-cache-size=6144 -mtune=haswell -auxbase-strip test.s -g -O2
# -std=gnu11 -fverbose-asm
# options enabled:  -faggressive-loop-optimizations
# -fasynchronous-unwind-tables -fauto-inc-dec -fbranch-count-reg
# -fcaller-saves -fcombine-stack-adjustments -fcommon -fcompare-elim
# -fcprop-registers -fcrossjumping -fcse-follow-jumps -fdefer-pop
# -fdelete-null-pointer-checks -fdevirtualize -fdevirtualize-speculatively
# -fdwarf2-cfi-asm -fearly-inlining -feliminate-unused-debug-types
# -fexpensive-optimizations -fforward-propagate -ffunction-cse -fgcse
# -fgcse-lm -fgnu-runtime -fgnu-unique -fguess-branch-probability
# -fhoist-adjacent-loads -fident -fif-conversion -fif-conversion2
# -findirect-inlining -finline -finline-atomics
# -finline-functions-called-once -finline-small-functions -fipa-cp
# -fipa-profile -fipa-pure-const -fipa-reference -fipa-sra
# -fira-hoist-pressure -fira-share-save-slots -fira-share-spill-slots
# -fisolate-erroneous-paths-dereference -fivopts -fkeep-static-consts
# -fleading-underscore -fmath-errno -fmerge-constants -fmerge-debug-strings
# -fmove-loop-invariants -fomit-frame-pointer -foptimize-sibling-calls
# -foptimize-strlen -fpartial-inlining -fpeephole -fpeephole2
# -fprefetch-loop-arrays -free -freg-struct-return -freorder-blocks
# -freorder-blocks-and-partition -freorder-functions -frerun-cse-after-loop
# -fsched-critical-path-heuristic -fsched-dep-count-heuristic
# -fsched-group-heuristic -fsched-interblock -fsched-last-insn-heuristic
# -fsched-rank-heuristic -fsched-spec -fsched-spec-insn-heuristic
# -fsched-stalled-insns-dep -fschedule-insns2 -fshow-column -fshrink-wrap
# -fsigned-zeros -fsplit-ivs-in-unroller -fsplit-wide-types
# -fstrict-aliasing -fstrict-overflow -fstrict-volatile-bitfields
# -fsync-libcalls -fthread-jumps -ftoplevel-reorder -ftrapping-math
# -ftree-bit-ccp -ftree-builtin-call-dce -ftree-ccp -ftree-ch
# -ftree-coalesce-vars -ftree-copy-prop -ftree-copyrename -ftree-cselim
# -ftree-dce -ftree-dominator-opts -ftree-dse -ftree-forwprop -ftree-fre
# -ftree-loop-if-convert -ftree-loop-im -ftree-loop-ivcanon
# -ftree-loop-optimize -ftree-parallelize-loops= -ftree-phiprop -ftree-pre
# -ftree-pta -ftree-reassoc -ftree-scev-cprop -ftree-sink -ftree-slsr
# -ftree-sra -ftree-switch-conversion -ftree-tail-merge -ftree-ter
# -ftree-vrp -funit-at-a-time -funwind-tables -fvar-tracking
# -fvar-tracking-assignments -fverbose-asm -fzero-initialized-in-bss
# -m128bit-long-double -m64 -m80387 -mabm -maes -malign-stringops -mavx
# -mavx2 -mbmi -mbmi2 -mcx16 -mf16c -mfancy-math-387 -mfma -mfp-ret-in-387
# -mfsgsbase -mfxsr -mglibc -mhle -mieee-fp -mlong-double-80 -mlzcnt -mmmx
# -mmovbe -mpclmul -mpopcnt -mpush-args -mrdrnd -mred-zone -msahf -msse
# -msse2 -msse3 -msse4 -msse4.1 -msse4.2 -mssse3 -mtls-direct-seg-refs
# -mvzeroupper -mxsave -mxsaveopt

	.text
.Ltext0:
	.section	.text.unlikely,"ax",@progbits
.LCOLDB0:
	.text
.LHOTB0:
	.p2align 4,,15
	.section	.text.unlikely
.Ltext_cold0:
	.text
	.type	identity_worker, @function
identity_worker:
.LFB2266:
	.file 1 "matrix.c"
	.loc 1 220 0
	.cfi_startproc
.LVL0:
	.loc 1 223 0
	movq	g_width(%rip), %rax	# g_width, tmp120
	.loc 1 222 0
	movq	(%rdi), %rdx	# MEM[(struct identity_argument *)arg_4(D)].matrix_obj, MEM[(struct identity_argument *)arg_4(D)].matrix_obj
.LVL1:
	.loc 1 223 0
	leaq	1(%rax), %rcx	#, D.18948
	movl	8(%rdi), %eax	# MEM[(struct identity_argument *)arg_4(D)].start_row, D.18948
	movq	(%rdx), %rsi	# _6->data,
	imulq	%rcx, %rax	# D.18948, D.18948
	salq	$2, %rcx	#, D.18946
	leaq	(%rsi,%rax,4), %rax	#, matrix
.LVL2:
.LBB17:
	.loc 1 225 0
	movl	12(%rdi), %esi	# MEM[(struct identity_argument *)arg_4(D)].num_rows, i
.LVL3:
	leal	-1(%rsi), %edx	#, i
.LVL4:
	testl	%esi, %esi	# i
	je	.L8	#,
	.p2align 4,,10
	.p2align 3
.L5:
	subl	$1, %edx	#, i
.LVL5:
	.loc 1 227 0
	movl	$1, (%rax)	#, MEM[base: matrix_27, offset: 0B]
	.loc 1 228 0
	addq	%rcx, %rax	# D.18946, matrix
.LVL6:
	.loc 1 225 0
	cmpl	$-1, %edx	#, i
	jne	.L5	#,
.L8:
.LBE17:
	.loc 1 231 0
	xorl	%eax, %eax	#
.LVL7:
	ret
	.cfi_endproc
.LFE2266:
	.size	identity_worker, .-identity_worker
	.section	.text.unlikely
.LCOLDE0:
	.text
.LHOTE0:
	.section	.text.unlikely
.LCOLDB1:
	.text
.LHOTB1:
	.p2align 4,,15
	.type	uniform_worker, @function
uniform_worker:
.LFB2272:
	.loc 1 449 0
	.cfi_startproc
.LVL8:
	.loc 1 453 0
	movq	g_width(%rip), %rsi	# g_width, D.18965
	movl	12(%rdi), %eax	# MEM[(struct uniform_argument *)arg_4(D)].start_row, D.18965
	.loc 1 451 0
	movq	(%rdi), %rdx	# MEM[(struct uniform_argument *)arg_4(D)].matrix_obj, MEM[(struct uniform_argument *)arg_4(D)].matrix_obj
.LVL9:
	.loc 1 452 0
	movl	8(%rdi), %ecx	# MEM[(struct uniform_argument *)arg_4(D)].value, value
.LVL10:
	.loc 1 453 0
	imulq	%rsi, %rax	# D.18965, D.18965
	movq	(%rdx), %r8	# _6->data,
.LBB18:
	.loc 1 455 0
	imull	16(%rdi), %esi	# MEM[(struct uniform_argument *)arg_4(D)].num_rows, i
.LBE18:
	.loc 1 453 0
	leaq	(%r8,%rax,4), %rax	#, matrix
.LVL11:
.LBB19:
	.loc 1 455 0
	leal	-1(%rsi), %edx	#,
.LVL12:
	leaq	4(%rax,%rdx,4), %rdx	#, D.18967
.LVL13:
	testl	%esi, %esi	# i
	je	.L16	#,
.LVL14:
	.p2align 4,,10
	.p2align 3
.L12:
	.loc 1 457 0
	addq	$4, %rax	#, matrix
.LVL15:
	movl	%ecx, -4(%rax)	# value, MEM[base: matrix_20, offset: -4B]
	.loc 1 455 0
	cmpq	%rdx, %rax	# D.18967, matrix
	jne	.L12	#,
.L16:
.LBE19:
	.loc 1 461 0
	xorl	%eax, %eax	#
.LVL16:
	ret
	.cfi_endproc
.LFE2272:
	.size	uniform_worker, .-uniform_worker
	.section	.text.unlikely
.LCOLDE1:
	.text
.LHOTE1:
	.section	.text.unlikely
.LCOLDB2:
	.text
.LHOTB2:
	.p2align 4,,15
	.type	sequence_worker, @function
sequence_worker:
.LFB2275:
	.loc 1 571 0
	.cfi_startproc
.LVL17:
	.loc 1 575 0
	movl	16(%rdi), %edx	# MEM[(struct sequence_argument *)arg_10(D)].start_row,
	.loc 1 574 0
	movl	12(%rdi), %r10d	# MEM[(struct sequence_argument *)arg_10(D)].increment, increment
	.loc 1 575 0
	movq	g_width(%rip), %rcx	# g_width, D.18986
	.loc 1 573 0
	movq	(%rdi), %rsi	# MEM[(struct sequence_argument *)arg_10(D)].matrix_obj, MEM[(struct sequence_argument *)arg_10(D)].matrix_obj
.LVL18:
	.loc 1 575 0
	movl	%edx, %eax	# D.18985, D.18985
	imull	%r10d, %eax	# increment, D.18985
	.loc 1 576 0
	imulq	%rcx, %rdx	# D.18986, D.18986
	movq	(%rsi), %r8	# _12->data,
	.loc 1 575 0
	imull	%ecx, %eax	# D.18986, D.18985
	addl	8(%rdi), %eax	# MEM[(struct sequence_argument *)arg_10(D)].start_value, max
.LVL19:
.LBB20:
	.loc 1 582 0
	imull	20(%rdi), %ecx	# MEM[(struct sequence_argument *)arg_10(D)].num_rows, i
.LBE20:
	.loc 1 576 0
	leaq	(%r8,%rdx,4), %rdx	#, matrix
.LVL20:
.LBB21:
	.loc 1 582 0
	leal	-1(%rcx), %esi	#,
.LVL21:
	testl	%ecx, %ecx	# i
	je	.L20	#,
	leaq	4(%rdx,%rsi,4), %r9	#, D.18983
	xorl	%r8d, %r8d	# sum
	xorl	%ecx, %ecx	# max
	movl	$-1, %esi	#, max
.LVL22:
	.p2align 4,,10
	.p2align 3
.L19:
	cmpl	%eax, %esi	# max, max
	.loc 1 584 0
	movl	%eax, (%rdx)	# max, MEM[base: matrix_65, offset: 0B]
	cmova	%eax, %esi	# max,, max, max
.LVL23:
	cmpl	%eax, %ecx	# max, max
	cmovb	%eax, %ecx	# max,, max, max
.LVL24:
	.loc 1 588 0
	addq	$4, %rdx	#, matrix
.LVL25:
	.loc 1 587 0
	addl	%eax, %r8d	# max, sum
.LVL26:
	.loc 1 589 0
	addl	%r10d, %eax	# increment, max
.LVL27:
	.loc 1 582 0
	cmpq	%r9, %rdx	# D.18983, matrix
	jne	.L19	#,
.LVL28:
.L18:
.LBE21:
	.loc 1 592 0
	movl	48(%rdi), %edx	# MEM[(struct sequence_argument *)arg_10(D)].id, D.18987
.LVL29:
	movq	24(%rdi), %rax	# MEM[(struct sequence_argument *)arg_10(D)].mins, MEM[(struct sequence_argument *)arg_10(D)].mins
.LVL30:
	movl	%esi, (%rax,%rdx,4)	# max, *_38
	.loc 1 593 0
	movq	32(%rdi), %rax	# MEM[(struct sequence_argument *)arg_10(D)].maxes, MEM[(struct sequence_argument *)arg_10(D)].maxes
	movl	48(%rdi), %edx	# MEM[(struct sequence_argument *)arg_10(D)].id, D.18987
	movl	%ecx, (%rax,%rdx,4)	# max, *_44
	.loc 1 594 0
	movq	40(%rdi), %rax	# MEM[(struct sequence_argument *)arg_10(D)].sums, MEM[(struct sequence_argument *)arg_10(D)].sums
	movl	48(%rdi), %edx	# MEM[(struct sequence_argument *)arg_10(D)].id, D.18987
	movl	%r8d, (%rax,%rdx,4)	# sum, *_50
	.loc 1 597 0
	xorl	%eax, %eax	#
	ret
.LVL31:
.L20:
	.loc 1 580 0
	xorl	%r8d, %r8d	# sum
	.loc 1 579 0
	xorl	%ecx, %ecx	# max
	.loc 1 578 0
	movl	$-1, %esi	#, max
.LVL32:
	jmp	.L18	#
	.cfi_endproc
.LFE2275:
	.size	sequence_worker, .-sequence_worker
	.section	.text.unlikely
.LCOLDE2:
	.text
.LHOTE2:
	.section	.text.unlikely
.LCOLDB3:
	.text
.LHOTB3:
	.p2align 4,,15
	.type	clone_worker, @function
clone_worker:
.LFB2278:
	.loc 1 705 0
	.cfi_startproc
.LVL33:
	.loc 1 710 0
	movq	g_width(%rip), %rdx	# g_width, D.19003
	movl	16(%rdi), %ecx	# MEM[(struct clone_argument *)arg_5(D)].start_row, D.19003
	.loc 1 707 0
	movq	(%rdi), %rsi	# MEM[(struct clone_argument *)arg_5(D)].matrix_obj, MEM[(struct clone_argument *)arg_5(D)].matrix_obj
.LVL34:
	.loc 1 708 0
	movq	8(%rdi), %rax	# MEM[(struct clone_argument *)arg_5(D)].result_obj, MEM[(struct clone_argument *)arg_5(D)].result_obj
.LVL35:
	.loc 1 710 0
	imulq	%rdx, %rcx	# D.19003, D.19003
.LBB22:
	.loc 1 713 0
	imull	20(%rdi), %edx	# MEM[(struct clone_argument *)arg_5(D)].num_rows, i
.LBE22:
	.loc 1 710 0
	salq	$2, %rcx	#, D.19004
	movq	%rcx, %r8	# D.19004, matrix
	addq	(%rsi), %r8	# _7->data, matrix
.LVL36:
	.loc 1 711 0
	addq	(%rax), %rcx	# _9->data, result
.LVL37:
.LBB23:
	.loc 1 713 0
	xorl	%eax, %eax	# ivtmp.312
	leal	-1(%rdx), %esi	#, D.19005
	addq	$1, %rsi	#, D.19005
	testl	%edx, %edx	# i
	je	.L29	#,
.LVL38:
	.p2align 4,,10
	.p2align 3
.L26:
	.loc 1 715 0
	movl	(%r8,%rax,4), %edx	# MEM[base: matrix_17, index: ivtmp.312_2, step: 4, offset: 0B], D.19002
	movl	%edx, (%rcx,%rax,4)	# D.19002, MEM[base: result_18, index: ivtmp.312_2, step: 4, offset: 0B]
	addq	$1, %rax	#, ivtmp.312
.LVL39:
	.loc 1 713 0
	cmpq	%rsi, %rax	# D.19005, ivtmp.312
	jne	.L26	#,
.LVL40:
.L29:
.LBE23:
	.loc 1 724 0
	xorl	%eax, %eax	#
	ret
	.cfi_endproc
.LFE2278:
	.size	clone_worker, .-clone_worker
	.section	.text.unlikely
.LCOLDE3:
	.text
.LHOTE3:
	.section	.text.unlikely
.LCOLDB4:
	.text
.LHOTB4:
	.p2align 4,,15
	.type	reverse_worker, @function
reverse_worker:
.LFB2281:
	.loc 1 808 0
	.cfi_startproc
.LVL41:
	.loc 1 812 0
	movq	g_width(%rip), %rcx	# g_width, D.19023
	movl	20(%rdi), %edx	# MEM[(struct reverse_argument *)arg_5(D)].start_row, D.19023
	.loc 1 811 0
	movq	(%rdi), %r8	# MEM[(struct reverse_argument *)arg_5(D)].result_obj, MEM[(struct reverse_argument *)arg_5(D)].result_obj
	.loc 1 813 0
	movq	g_elements(%rip), %r9	# g_elements, D.19023
	.loc 1 810 0
	movq	8(%rdi), %rsi	# MEM[(struct reverse_argument *)arg_5(D)].matrix_obj, MEM[(struct reverse_argument *)arg_5(D)].matrix_obj
.LVL42:
	.loc 1 812 0
	imulq	%rcx, %rdx	# D.19023, D.19023
.LBB24:
	.loc 1 815 0
	imull	16(%rdi), %ecx	# MEM[(struct reverse_argument *)arg_5(D)].num_rows, i
.LBE24:
	.loc 1 812 0
	leaq	0(,%rdx,4), %rax	#, D.19024
	addq	(%r8), %rax	# _9->data, result
.LVL43:
	.loc 1 813 0
	subq	%rdx, %r9	# D.19023, D.19023
	leaq	-4(,%r9,4), %rdx	#, D.19020
	addq	(%rsi), %rdx	# _7->data, matrix
.LVL44:
.LBB25:
	.loc 1 815 0
	leal	-1(%rcx), %esi	#,
.LVL45:
	leaq	4(%rax,%rsi,4), %rsi	#, D.19025
.LVL46:
	testl	%ecx, %ecx	# i
	je	.L36	#,
.LVL47:
	.p2align 4,,10
	.p2align 3
.L32:
	.loc 1 817 0
	subq	$4, %rdx	#, matrix
.LVL48:
	movl	4(%rdx), %ecx	# MEM[base: matrix_29, offset: 4B], D.19022
	addq	$4, %rax	#, result
.LVL49:
	movl	%ecx, -4(%rax)	# D.19022, MEM[base: result_28, offset: -4B]
	.loc 1 815 0
	cmpq	%rsi, %rax	# D.19025, result
	jne	.L32	#,
.L36:
.LBE25:
	.loc 1 821 0
	xorl	%eax, %eax	#
.LVL50:
	ret
	.cfi_endproc
.LFE2281:
	.size	reverse_worker, .-reverse_worker
	.section	.text.unlikely
.LCOLDE4:
	.text
.LHOTE4:
	.section	.text.unlikely
.LCOLDB5:
	.text
.LHOTB5:
	.p2align 4,,15
	.type	transpose_worker, @function
transpose_worker:
.LFB2283:
	.loc 1 883 0
	.cfi_startproc
.LVL51:
	pushq	%rbp	#
	.cfi_def_cfa_offset 16
	.cfi_offset 6, -16
	movq	g_width(%rip), %r8	# g_width, D.19048
	pushq	%rbx	#
	.cfi_def_cfa_offset 24
	.cfi_offset 3, -24
	.loc 1 885 0
	movq	(%rdi), %rax	# MEM[(struct transpose_argument *)arg_7(D)].matrix_obj, MEM[(struct transpose_argument *)arg_7(D)].matrix_obj
	.loc 1 888 0
	movl	20(%rdi), %ebx	# MEM[(struct transpose_argument *)arg_7(D)].start_row, curr_y
	.loc 1 885 0
	movq	(%rax), %r11	# _9->data, matrix
.LVL52:
	.loc 1 886 0
	movq	8(%rdi), %rax	# MEM[(struct transpose_argument *)arg_7(D)].result_obj, MEM[(struct transpose_argument *)arg_7(D)].result_obj
	movq	(%rax), %r10	# _11->data, result
.LVL53:
.LBB26:
	.loc 1 889 0
	movl	16(%rdi), %eax	# MEM[(struct transpose_argument *)arg_7(D)].num_rows, num_rows
.LVL54:
	movl	%r8d, %edi	# D.19048, D.19049
.LVL55:
	leal	(%rax,%rbx), %ebp	#, D.19047
	testl	%eax, %eax	# num_rows
	je	.L48	#,
.LVL56:
	.p2align 4,,10
	.p2align 3
.L44:
.LBB27:
.LBB28:
	.loc 1 892 0
	testl	%edi, %edi	# D.19049
	je	.L43	#,
	movl	%ebx, %esi	# curr_y, D.19044
	movq	%r8, %r9	# D.19048, D.19044
	xorl	%edx, %edx	# curr_x
	imulq	%rsi, %r9	# D.19044, D.19044
.LVL57:
	.p2align 4,,10
	.p2align 3
.L42:
	.loc 1 894 0
	movl	%edx, %eax	# curr_x, D.19044
	.loc 1 895 0
	addl	$1, %edx	#, curr_x
.LVL58:
	.loc 1 894 0
	leaq	(%rax,%r9), %rcx	#, tmp114
	imulq	%r8, %rax	# D.19048, D.19044
	movl	(%r11,%rcx,4), %ecx	# *_30, D.19047
	addq	%rsi, %rax	# D.19044, tmp116
	movl	%ecx, (%r10,%rax,4)	# D.19047, *_25
	.loc 1 892 0
	cmpl	%edi, %edx	# D.19049, curr_x
	jne	.L42	#,
.LVL59:
.L43:
.LBE28:
	.loc 1 897 0
	addl	$1, %ebx	#, curr_y
.LVL60:
.LBE27:
	.loc 1 889 0
	cmpl	%ebp, %ebx	# D.19047, curr_y
	jne	.L44	#,
.L48:
.LBE26:
	.loc 1 900 0
	xorl	%eax, %eax	#
	popq	%rbx	#
	.cfi_def_cfa_offset 16
.LVL61:
	popq	%rbp	#
	.cfi_def_cfa_offset 8
	ret
	.cfi_endproc
.LFE2283:
	.size	transpose_worker, .-transpose_worker
	.section	.text.unlikely
.LCOLDE5:
	.text
.LHOTE5:
	.section	.text.unlikely
.LCOLDB6:
	.text
.LHOTB6:
	.p2align 4,,15
	.type	scalar_add_worker, @function
scalar_add_worker:
.LFB2286:
	.loc 1 994 0
	.cfi_startproc
.LVL62:
	.loc 1 1000 0
	movq	g_width(%rip), %rax	# g_width, D.19066
	.loc 1 994 0
	pushq	%rbx	#
	.cfi_def_cfa_offset 16
	.cfi_offset 3, -16
	.loc 1 1000 0
	movl	48(%rdi), %r9d	# MEM[(struct scalar_add_argument *)arg_10(D)].start_row, D.19066
	.loc 1 996 0
	movq	(%rdi), %rcx	# MEM[(struct scalar_add_argument *)arg_10(D)].matrix_obj, MEM[(struct scalar_add_argument *)arg_10(D)].matrix_obj
.LVL63:
	.loc 1 997 0
	movq	8(%rdi), %rdx	# MEM[(struct scalar_add_argument *)arg_10(D)].result_obj, MEM[(struct scalar_add_argument *)arg_10(D)].result_obj
.LVL64:
	.loc 1 998 0
	movl	40(%rdi), %r11d	# MEM[(struct scalar_add_argument *)arg_10(D)].scalar, scalar
.LVL65:
	.loc 1 1000 0
	imulq	%rax, %r9	# D.19066, D.19066
.LBB29:
	.loc 1 1007 0
	imull	44(%rdi), %eax	# MEM[(struct scalar_add_argument *)arg_10(D)].num_rows, i
	leal	-1(%rax), %r10d	#,
.LBE29:
	.loc 1 1000 0
	salq	$2, %r9	#, D.19067
	movq	%r9, %rbx	# D.19067, matrix
	.loc 1 1001 0
	addq	(%rdx), %r9	# _14->data, result
	.loc 1 1000 0
	addq	(%rcx), %rbx	# _12->data, matrix
.LVL66:
.LBB30:
	.loc 1 1007 0
	testl	%eax, %eax	# i
	je	.L53	#,
	addq	$1, %r10	#, D.19063
.LVL67:
	xorl	%edx, %edx	# ivtmp.356
	xorl	%r8d, %r8d	# sum
	xorl	%ecx, %ecx	# max
	movl	$-1, %esi	#, max
.LVL68:
	.p2align 4,,10
	.p2align 3
.L52:
	.loc 1 1009 0
	movl	(%rbx,%rdx,4), %eax	# MEM[base: matrix_23, index: ivtmp.356_60, step: 4, offset: 0B], max
	addl	%r11d, %eax	# scalar, max
	cmpl	%eax, %esi	# max, max
	movl	%eax, (%r9,%rdx,4)	# max, MEM[base: result_24, index: ivtmp.356_60, step: 4, offset: 0B]
	cmova	%eax, %esi	# max,, max, max
.LVL69:
	cmpl	%eax, %ecx	# max, max
	cmovb	%eax, %ecx	# max,, max, max
.LVL70:
	addq	$1, %rdx	#, ivtmp.356
.LVL71:
	.loc 1 1012 0
	addl	%eax, %r8d	# max, sum
.LVL72:
	.loc 1 1007 0
	cmpq	%r10, %rdx	# D.19063, ivtmp.356
	jne	.L52	#,
.LVL73:
.L51:
.LBE30:
	.loc 1 1016 0
	movl	52(%rdi), %edx	# MEM[(struct scalar_add_argument *)arg_10(D)].id, D.19067
	movq	16(%rdi), %rax	# MEM[(struct scalar_add_argument *)arg_10(D)].mins, MEM[(struct scalar_add_argument *)arg_10(D)].mins
	movl	%esi, (%rax,%rdx,4)	# max, *_39
	.loc 1 1017 0
	movq	24(%rdi), %rax	# MEM[(struct scalar_add_argument *)arg_10(D)].maxes, MEM[(struct scalar_add_argument *)arg_10(D)].maxes
	movl	52(%rdi), %edx	# MEM[(struct scalar_add_argument *)arg_10(D)].id, D.19067
	movl	%ecx, (%rax,%rdx,4)	# max, *_45
	.loc 1 1018 0
	movq	32(%rdi), %rax	# MEM[(struct scalar_add_argument *)arg_10(D)].sums, MEM[(struct scalar_add_argument *)arg_10(D)].sums
	movl	52(%rdi), %edx	# MEM[(struct scalar_add_argument *)arg_10(D)].id, D.19067
	movl	%r8d, (%rax,%rdx,4)	# sum, *_51
	.loc 1 1021 0
	xorl	%eax, %eax	#
	popq	%rbx	#
	.cfi_remember_state
	.cfi_def_cfa_offset 8
	ret
.LVL74:
.L53:
	.cfi_restore_state
	.loc 1 1005 0
	xorl	%r8d, %r8d	# sum
	.loc 1 1004 0
	xorl	%ecx, %ecx	# max
	.loc 1 1003 0
	movl	$-1, %esi	#, max
	jmp	.L51	#
	.cfi_endproc
.LFE2286:
	.size	scalar_add_worker, .-scalar_add_worker
	.section	.text.unlikely
.LCOLDE6:
	.text
.LHOTE6:
	.section	.text.unlikely
.LCOLDB7:
	.text
.LHOTB7:
	.p2align 4,,15
	.type	scalar_mul_worker, @function
scalar_mul_worker:
.LFB2288:
	.loc 1 1101 0
	.cfi_startproc
.LVL75:
	.loc 1 1107 0
	movq	g_width(%rip), %rax	# g_width, D.19097
	.loc 1 1101 0
	pushq	%rbx	#
	.cfi_def_cfa_offset 16
	.cfi_offset 3, -16
	.loc 1 1107 0
	movl	48(%rdi), %r9d	# MEM[(struct scalar_mul_argument *)arg_10(D)].start_row, D.19097
	.loc 1 1103 0
	movq	(%rdi), %rcx	# MEM[(struct scalar_mul_argument *)arg_10(D)].matrix_obj, MEM[(struct scalar_mul_argument *)arg_10(D)].matrix_obj
.LVL76:
	.loc 1 1104 0
	movq	8(%rdi), %rdx	# MEM[(struct scalar_mul_argument *)arg_10(D)].result_obj, MEM[(struct scalar_mul_argument *)arg_10(D)].result_obj
.LVL77:
	.loc 1 1105 0
	movl	40(%rdi), %r11d	# MEM[(struct scalar_mul_argument *)arg_10(D)].scalar, scalar
.LVL78:
	.loc 1 1107 0
	imulq	%rax, %r9	# D.19097, D.19097
.LBB31:
	.loc 1 1114 0
	imull	44(%rdi), %eax	# MEM[(struct scalar_mul_argument *)arg_10(D)].num_rows, i
	leal	-1(%rax), %r10d	#,
.LBE31:
	.loc 1 1107 0
	salq	$2, %r9	#, D.19098
	movq	%r9, %rbx	# D.19098, matrix
	addq	(%rcx), %rbx	# _12->data, matrix
.LVL79:
	.loc 1 1108 0
	addq	(%rdx), %r9	# _14->data, result
.LVL80:
	.loc 1 1110 0
	movl	(%rbx), %ecx	# *matrix_23, max
.LVL81:
.LBB32:
	.loc 1 1114 0
	testl	%eax, %eax	# i
	je	.L59	#,
	salq	$2, %r10	#, D.19094
.LVL82:
	movl	%ecx, %eax	# max, D.19093
.LVL83:
	movl	%ecx, %esi	# max, max
	xorl	%edx, %edx	# ivtmp.379
	xorl	%r8d, %r8d	# sum
	jmp	.L58	#
.LVL84:
	.p2align 4,,10
	.p2align 3
.L61:
	movl	4(%rbx,%rdx), %eax	# MEM[base: matrix_23, index: ivtmp.379_31, offset: 4B], D.19093
	addq	$4, %rdx	#, ivtmp.379
.LVL85:
.L58:
	.loc 1 1116 0
	imull	%r11d, %eax	# scalar, max
	cmpl	%eax, %ecx	# max, max
	movl	%eax, (%r9,%rdx)	# max, MEM[base: result_24, index: ivtmp.379_31, offset: 0B]
	cmova	%eax, %ecx	# max,, max, max
.LVL86:
	cmpl	%eax, %esi	# max, max
	cmovb	%eax, %esi	# max,, max, max
.LVL87:
	.loc 1 1119 0
	addl	%eax, %r8d	# max, sum
.LVL88:
	.loc 1 1114 0
	cmpq	%r10, %rdx	# D.19094, ivtmp.379
	jne	.L61	#,
.LVL89:
.L57:
.LBE32:
	.loc 1 1123 0
	movl	52(%rdi), %edx	# MEM[(struct scalar_mul_argument *)arg_10(D)].id, D.19098
	movq	16(%rdi), %rax	# MEM[(struct scalar_mul_argument *)arg_10(D)].mins, MEM[(struct scalar_mul_argument *)arg_10(D)].mins
	movl	%ecx, (%rax,%rdx,4)	# max, *_40
	.loc 1 1124 0
	movq	24(%rdi), %rax	# MEM[(struct scalar_mul_argument *)arg_10(D)].maxes, MEM[(struct scalar_mul_argument *)arg_10(D)].maxes
	movl	52(%rdi), %edx	# MEM[(struct scalar_mul_argument *)arg_10(D)].id, D.19098
	movl	%esi, (%rax,%rdx,4)	# max, *_46
	.loc 1 1125 0
	movq	32(%rdi), %rax	# MEM[(struct scalar_mul_argument *)arg_10(D)].sums, MEM[(struct scalar_mul_argument *)arg_10(D)].sums
	movl	52(%rdi), %edx	# MEM[(struct scalar_mul_argument *)arg_10(D)].id, D.19098
	movl	%r8d, (%rax,%rdx,4)	# sum, *_52
	.loc 1 1128 0
	xorl	%eax, %eax	#
	popq	%rbx	#
	.cfi_remember_state
	.cfi_def_cfa_offset 8
	ret
.LVL90:
.L59:
	.cfi_restore_state
	.loc 1 1111 0
	movl	%ecx, %esi	# max, max
	.loc 1 1112 0
	xorl	%r8d, %r8d	# sum
	jmp	.L57	#
	.cfi_endproc
.LFE2288:
	.size	scalar_mul_worker, .-scalar_mul_worker
	.section	.text.unlikely
.LCOLDE7:
	.text
.LHOTE7:
	.section	.text.unlikely
.LCOLDB8:
	.text
.LHOTB8:
	.p2align 4,,15
	.type	matrix_add_worker, @function
matrix_add_worker:
.LFB2290:
	.loc 1 1204 0
	.cfi_startproc
.LVL91:
	.loc 1 1210 0
	movq	g_width(%rip), %rax	# g_width, D.19118
	.loc 1 1204 0
	pushq	%rbx	#
	.cfi_def_cfa_offset 16
	.cfi_offset 3, -16
	.loc 1 1210 0
	movl	52(%rdi), %r9d	# MEM[(struct matrix_add_argument *)arg_11(D)].start_row, D.19118
	.loc 1 1206 0
	movq	(%rdi), %rsi	# MEM[(struct matrix_add_argument *)arg_11(D)].matrix_a_obj, MEM[(struct matrix_add_argument *)arg_11(D)].matrix_a_obj
.LVL92:
	.loc 1 1207 0
	movq	8(%rdi), %rcx	# MEM[(struct matrix_add_argument *)arg_11(D)].matrix_b_obj, MEM[(struct matrix_add_argument *)arg_11(D)].matrix_b_obj
.LVL93:
	.loc 1 1208 0
	movq	16(%rdi), %rdx	# MEM[(struct matrix_add_argument *)arg_11(D)].result_obj, MEM[(struct matrix_add_argument *)arg_11(D)].result_obj
.LVL94:
	.loc 1 1210 0
	imulq	%rax, %r9	# D.19118, D.19118
.LBB33:
	.loc 1 1218 0
	imull	48(%rdi), %eax	# MEM[(struct matrix_add_argument *)arg_11(D)].num_rows, i
	leal	-1(%rax), %r10d	#,
.LBE33:
	.loc 1 1210 0
	salq	$2, %r9	#, D.19119
	movq	%r9, %r11	# D.19119, matrix_a
	.loc 1 1211 0
	movq	%r9, %rbx	# D.19119, matrix_b
	.loc 1 1210 0
	addq	(%rsi), %r11	# _13->data, matrix_a
.LVL95:
	.loc 1 1211 0
	addq	(%rcx), %rbx	# _15->data, matrix_b
.LVL96:
	.loc 1 1212 0
	addq	(%rdx), %r9	# _17->data, result
.LVL97:
.LBB34:
	.loc 1 1218 0
	testl	%eax, %eax	# i
	je	.L65	#,
	addq	$1, %r10	#, D.19115
.LVL98:
	xorl	%edx, %edx	# ivtmp.393
	xorl	%r8d, %r8d	# sum
	xorl	%ecx, %ecx	# max
	movl	$-1, %esi	#, max
.LVL99:
	.p2align 4,,10
	.p2align 3
.L64:
	.loc 1 1220 0
	movl	(%r11,%rdx,4), %eax	# MEM[base: matrix_a_25, index: ivtmp.393_65, step: 4, offset: 0B], MEM[base: matrix_a_25, index: ivtmp.393_65, step: 4, offset: 0B]
	addl	(%rbx,%rdx,4), %eax	# MEM[base: matrix_b_26, index: ivtmp.393_65, step: 4, offset: 0B], max
	cmpl	%eax, %esi	# max, max
	movl	%eax, (%r9,%rdx,4)	# max, MEM[base: result_27, index: ivtmp.393_65, step: 4, offset: 0B]
	cmova	%eax, %esi	# max,, max, max
.LVL100:
	cmpl	%eax, %ecx	# max, max
	cmovb	%eax, %ecx	# max,, max, max
.LVL101:
	addq	$1, %rdx	#, ivtmp.393
.LVL102:
	.loc 1 1223 0
	addl	%eax, %r8d	# max, sum
.LVL103:
	.loc 1 1218 0
	cmpq	%r10, %rdx	# D.19115, ivtmp.393
	jne	.L64	#,
.LVL104:
.L63:
.LBE34:
	.loc 1 1227 0
	movl	56(%rdi), %edx	# MEM[(struct matrix_add_argument *)arg_11(D)].id, D.19119
	movq	24(%rdi), %rax	# MEM[(struct matrix_add_argument *)arg_11(D)].mins, MEM[(struct matrix_add_argument *)arg_11(D)].mins
	movl	%esi, (%rax,%rdx,4)	# max, *_44
	.loc 1 1228 0
	movq	32(%rdi), %rax	# MEM[(struct matrix_add_argument *)arg_11(D)].maxes, MEM[(struct matrix_add_argument *)arg_11(D)].maxes
	movl	56(%rdi), %edx	# MEM[(struct matrix_add_argument *)arg_11(D)].id, D.19119
	movl	%ecx, (%rax,%rdx,4)	# max, *_50
	.loc 1 1229 0
	movq	40(%rdi), %rax	# MEM[(struct matrix_add_argument *)arg_11(D)].sums, MEM[(struct matrix_add_argument *)arg_11(D)].sums
	movl	56(%rdi), %edx	# MEM[(struct matrix_add_argument *)arg_11(D)].id, D.19119
	movl	%r8d, (%rax,%rdx,4)	# sum, *_56
	.loc 1 1232 0
	xorl	%eax, %eax	#
	popq	%rbx	#
	.cfi_remember_state
	.cfi_def_cfa_offset 8
	ret
.LVL105:
.L65:
	.cfi_restore_state
	.loc 1 1216 0
	xorl	%r8d, %r8d	# sum
	.loc 1 1215 0
	xorl	%ecx, %ecx	# max
	.loc 1 1214 0
	movl	$-1, %esi	#, max
	jmp	.L63	#
	.cfi_endproc
.LFE2290:
	.size	matrix_add_worker, .-matrix_add_worker
	.section	.text.unlikely
.LCOLDE8:
	.text
.LHOTE8:
	.section	.text.unlikely
.LCOLDB9:
	.text
.LHOTB9:
	.p2align 4,,15
	.type	matrix_mul_worker, @function
matrix_mul_worker:
.LFB2292:
	.loc 1 1311 0
	.cfi_startproc
.LVL106:
	pushq	%r15	#
	.cfi_def_cfa_offset 16
	.cfi_offset 15, -16
	pushq	%r14	#
	.cfi_def_cfa_offset 24
	.cfi_offset 14, -24
	pushq	%r13	#
	.cfi_def_cfa_offset 32
	.cfi_offset 13, -32
	pushq	%r12	#
	.cfi_def_cfa_offset 40
	.cfi_offset 12, -40
	pushq	%rbp	#
	.cfi_def_cfa_offset 48
	.cfi_offset 6, -48
	pushq	%rbx	#
	.cfi_def_cfa_offset 56
	.cfi_offset 3, -56
	.loc 1 1313 0
	movq	(%rdi), %rax	# MEM[(struct matrix_mul_argument *)arg_17(D)].matrix_a_obj, MEM[(struct matrix_mul_argument *)arg_17(D)].matrix_a_obj
	.loc 1 1323 0
	movl	52(%rdi), %ebx	# MEM[(struct matrix_mul_argument *)arg_17(D)].start_row, curr_y
	.loc 1 1311 0
	movq	%rdi, -8(%rsp)	# arg, %sfp
	.loc 1 1313 0
	movq	(%rax), %r9	# _20->data, matrix_a
.LVL107:
	.loc 1 1314 0
	movq	8(%rdi), %rax	# MEM[(struct matrix_mul_argument *)arg_17(D)].matrix_b_obj, MEM[(struct matrix_mul_argument *)arg_17(D)].matrix_b_obj
	.loc 1 1323 0
	movl	%ebx, -16(%rsp)	# curr_y, %sfp
	.loc 1 1314 0
	movq	(%rax), %r10	# _22->data, matrix_b
.LVL108:
	.loc 1 1315 0
	movq	16(%rdi), %rax	# MEM[(struct matrix_mul_argument *)arg_17(D)].result_obj, MEM[(struct matrix_mul_argument *)arg_17(D)].result_obj
	movq	(%rax), %r15	# _24->data, result
.LVL109:
.LBB35:
	.loc 1 1324 0
	movl	48(%rdi), %eax	# MEM[(struct matrix_mul_argument *)arg_17(D)].num_rows, y
.LVL110:
	testl	%eax, %eax	# y
	je	.L74	#,
	movq	g_width(%rip), %r14	# g_width, D.19149
	addl	%ebx, %eax	# curr_y, D.19148
.LVL111:
	xorl	%r13d, %r13d	# sum
	xorl	%ebp, %ebp	# max
	movl	%eax, -12(%rsp)	# D.19148, %sfp
	movl	$-1, %r12d	#, max
	leal	-1(%r14), %edi	#, z
.LVL112:
	movl	%r14d, -20(%rsp)	# D.19149, %sfp
	movl	%edi, -24(%rsp)	# z, %sfp
.LVL113:
.L73:
.LBB36:
.LBB37:
	.loc 1 1327 0
	movl	-20(%rsp), %eax	# %sfp,
	testl	%eax, %eax	#
	je	.L70	#,
	movl	-16(%rsp), %edi	# %sfp, D.19145
	xorl	%ebx, %ebx	# curr_x
	imulq	%r14, %rdi	# D.19149, D.19145
.LVL114:
	.p2align 4,,10
	.p2align 3
.L71:
	movl	%ebx, %r11d	# curr_x, D.19145
	movq	%r14, %r8	# D.19149, D.19145
.LBE37:
.LBE36:
	.loc 1 1324 0 discriminator 1
	movl	-24(%rsp), %edx	# %sfp, z
	xorl	%esi, %esi	# max
	imulq	%r11, %r8	# D.19145, D.19145
.LVL115:
	.p2align 4,,10
	.p2align 3
.L72:
.LBB41:
.LBB40:
.LBB38:
.LBB39:
	.loc 1 1332 0
	movl	%edx, %eax	# z, D.19145
	.loc 1 1330 0
	subl	$1, %edx	#, z
.LVL116:
	.loc 1 1332 0
	leaq	(%rax,%r8), %rcx	#, tmp148
	addq	%rdi, %rax	# D.19145, tmp149
	movl	(%r10,%rcx,4), %ecx	# *_47, *_47
	imull	(%r9,%rax,4), %ecx	# *_40, D.19148
	addl	%ecx, %esi	# D.19148, max
.LVL117:
	.loc 1 1330 0
	cmpl	$-1, %edx	#, z
	jne	.L72	#,
	cmpl	%esi, %r12d	# max, max
	cmova	%esi, %r12d	# max,, max, max
.LVL118:
	cmpl	%esi, %ebp	# max, max
	cmovb	%esi, %ebp	# max,, max, max
.LVL119:
.LBE39:
	.loc 1 1337 0
	addq	%rdi, %r11	# D.19145, tmp152
	.loc 1 1336 0
	addl	%esi, %r13d	# max, sum
.LVL120:
	.loc 1 1337 0
	movl	%esi, (%r15,%r11,4)	# max, *_60
	.loc 1 1338 0
	addl	$1, %ebx	#, curr_x
.LVL121:
.LBE38:
	.loc 1 1327 0
	cmpl	-20(%rsp), %ebx	# %sfp, curr_x
	jne	.L71	#,
.LVL122:
.L70:
.LBE40:
	.loc 1 1340 0
	addl	$1, -16(%rsp)	#, %sfp
.LVL123:
	movl	-16(%rsp), %eax	# %sfp, curr_y
.LVL124:
.LBE41:
	.loc 1 1324 0
	cmpl	-12(%rsp), %eax	# %sfp, curr_y
	jne	.L73	#,
.LVL125:
.L69:
.LBE35:
	.loc 1 1343 0
	movq	-8(%rsp), %rbx	# %sfp, arg
	movl	56(%rbx), %edx	# MEM[(struct matrix_mul_argument *)arg_17(D)].id, D.19146
	movq	24(%rbx), %rax	# MEM[(struct matrix_mul_argument *)arg_17(D)].mins, MEM[(struct matrix_mul_argument *)arg_17(D)].mins
	movl	%r12d, (%rax,%rdx,4)	# max, *_68
	.loc 1 1344 0
	movq	32(%rbx), %rax	# MEM[(struct matrix_mul_argument *)arg_17(D)].maxes, MEM[(struct matrix_mul_argument *)arg_17(D)].maxes
	movl	56(%rbx), %edx	# MEM[(struct matrix_mul_argument *)arg_17(D)].id, D.19146
	movl	%ebp, (%rax,%rdx,4)	# max, *_74
	.loc 1 1345 0
	movq	40(%rbx), %rax	# MEM[(struct matrix_mul_argument *)arg_17(D)].sums, MEM[(struct matrix_mul_argument *)arg_17(D)].sums
	movl	56(%rbx), %edx	# MEM[(struct matrix_mul_argument *)arg_17(D)].id, D.19146
	movl	%r13d, (%rax,%rdx,4)	# sum, *_80
	.loc 1 1348 0
	xorl	%eax, %eax	#
	popq	%rbx	#
	.cfi_remember_state
	.cfi_def_cfa_offset 48
.LVL126:
	popq	%rbp	#
	.cfi_def_cfa_offset 40
	popq	%r12	#
	.cfi_def_cfa_offset 32
	popq	%r13	#
	.cfi_def_cfa_offset 24
	popq	%r14	#
	.cfi_def_cfa_offset 16
	popq	%r15	#
	.cfi_def_cfa_offset 8
.LVL127:
	ret
.LVL128:
.L74:
	.cfi_restore_state
	.loc 1 1319 0
	xorl	%r13d, %r13d	# sum
	.loc 1 1318 0
	xorl	%ebp, %ebp	# max
	.loc 1 1317 0
	movl	$-1, %r12d	#, max
	jmp	.L69	#
	.cfi_endproc
.LFE2292:
	.size	matrix_mul_worker, .-matrix_mul_worker
	.section	.text.unlikely
.LCOLDE9:
	.text
.LHOTE9:
	.section	.text.unlikely
.LCOLDB10:
	.text
.LHOTB10:
	.p2align 4,,15
	.type	get_cmpe_worker, @function
get_cmpe_worker:
.LFB2302:
	.loc 1 1571 0
	.cfi_startproc
.LVL129:
	.loc 1 1574 0
	movq	g_width(%rip), %rdx	# g_width, D.19167
	movl	20(%rdi), %eax	# MEM[(struct get_cmpe_argument *)arg_4(D)].start_row, D.19167
	.loc 1 1573 0
	movq	(%rdi), %rcx	# MEM[(struct get_cmpe_argument *)arg_4(D)].matrix_obj, MEM[(struct get_cmpe_argument *)arg_4(D)].matrix_obj
.LVL130:
	.loc 1 1574 0
	imulq	%rdx, %rax	# D.19167, D.19167
	movq	(%rcx), %rsi	# _6->data,
.LBB42:
	.loc 1 1577 0
	imull	16(%rdi), %edx	# MEM[(struct get_cmpe_argument *)arg_4(D)].num_rows, i
.LBE42:
	.loc 1 1574 0
	leaq	(%rsi,%rax,4), %rax	#, matrix
.LVL131:
	.loc 1 1575 0
	movl	28(%rdi), %esi	# MEM[(struct get_cmpe_argument *)arg_4(D)].value, value
.LVL132:
.LBB43:
	.loc 1 1577 0
	leal	-1(%rdx), %ecx	#,
.LVL133:
	testl	%edx, %edx	# i
	je	.L85	#,
	leaq	4(%rax,%rcx,4), %r8	#, D.19163
	xorl	%edx, %edx	# count
.LVL134:
	.p2align 4,,10
	.p2align 3
.L84:
	.loc 1 1579 0
	addq	$4, %rax	#, matrix
.LVL135:
	xorl	%ecx, %ecx	# D.19169
	cmpl	%esi, -4(%rax)	# value, MEM[base: matrix_20, offset: -4B]
	sete	%cl	#, D.19169
	addl	%ecx, %edx	# D.19169, count
.LVL136:
	.loc 1 1577 0
	cmpq	%r8, %rax	# D.19163, matrix
	jne	.L84	#,
.LVL137:
.L83:
.LBE43:
	.loc 1 1581 0
	movq	8(%rdi), %rax	# MEM[(struct get_cmpe_argument *)arg_4(D)].result, MEM[(struct get_cmpe_argument *)arg_4(D)].result
.LVL138:
	movl	24(%rdi), %ecx	# MEM[(struct get_cmpe_argument *)arg_4(D)].id, D.19168
	movl	%edx, (%rax,%rcx,4)	# count, *_29
	.loc 1 1583 0
	xorl	%eax, %eax	#
	ret
.LVL139:
.L85:
	.loc 1 1576 0
	xorl	%edx, %edx	# count
	jmp	.L83	#
	.cfi_endproc
.LFE2302:
	.size	get_cmpe_worker, .-get_cmpe_worker
	.section	.text.unlikely
.LCOLDE10:
	.text
.LHOTE10:
	.section	.text.unlikely
.LCOLDB11:
	.text
.LHOTB11:
	.p2align 4,,15
	.globl	set_seed
	.type	set_seed, @function
set_seed:
.LFB2256:
	.loc 1 82 0
	.cfi_startproc
.LVL140:
	.loc 1 83 0
	movl	%edi, g_seed(%rip)	# seed, g_seed
	ret
	.cfi_endproc
.LFE2256:
	.size	set_seed, .-set_seed
	.section	.text.unlikely
.LCOLDE11:
	.text
.LHOTE11:
	.section	.text.unlikely
.LCOLDB12:
	.text
.LHOTB12:
	.p2align 4,,15
	.globl	set_nthreads
	.type	set_nthreads, @function
set_nthreads:
.LFB2257:
	.loc 1 90 0
	.cfi_startproc
.LVL141:
	.loc 1 91 0
	movq	%rdi, g_nthreads(%rip)	# count, g_nthreads
	ret
	.cfi_endproc
.LFE2257:
	.size	set_nthreads, .-set_nthreads
	.section	.text.unlikely
.LCOLDE12:
	.text
.LHOTE12:
	.section	.text.unlikely
.LCOLDB13:
	.text
.LHOTB13:
	.p2align 4,,15
	.globl	set_dimensions
	.type	set_dimensions, @function
set_dimensions:
.LFB2258:
	.loc 1 98 0
	.cfi_startproc
.LVL142:
	.loc 1 99 0
	movq	%rdi, g_width(%rip)	# order, g_width
	.loc 1 100 0
	movq	%rdi, g_height(%rip)	# order, g_height
	.loc 1 102 0
	imulq	%rdi, %rdi	# order, D.19176
.LVL143:
	movq	%rdi, g_elements(%rip)	# D.19176, g_elements
	ret
	.cfi_endproc
.LFE2258:
	.size	set_dimensions, .-set_dimensions
	.section	.text.unlikely
.LCOLDE13:
	.text
.LHOTE13:
	.section	.rodata.str1.1,"aMS",@progbits,1
.LC14:
	.string	"%u"
.LC15:
	.string	" %u"
	.section	.text.unlikely
.LCOLDB16:
	.text
.LHOTB16:
	.p2align 4,,15
	.globl	display
	.type	display, @function
display:
.LFB2259:
	.loc 1 109 0
	.cfi_startproc
.LVL144:
	.loc 1 111 0
	movq	g_height(%rip), %rax	# g_height, g_height
	.loc 1 109 0
	pushq	%r14	#
	.cfi_def_cfa_offset 16
	.cfi_offset 14, -16
	pushq	%r13	#
	.cfi_def_cfa_offset 24
	.cfi_offset 13, -24
	pushq	%r12	#
	.cfi_def_cfa_offset 32
	.cfi_offset 12, -32
	pushq	%rbp	#
	.cfi_def_cfa_offset 40
	.cfi_offset 6, -40
	.loc 1 112 0
	movl	%eax, %r13d	# g_height, ivtmp.462
	.loc 1 109 0
	pushq	%rbx	#
	.cfi_def_cfa_offset 48
	.cfi_offset 3, -48
	.loc 1 110 0
	movq	(%rdi), %rbx	# matrix_obj_8(D)->data, matrix
.LVL145:
	.loc 1 112 0
	testl	%eax, %eax	# g_height
	je	.L100	#,
.LVL146:
	.p2align 4,,10
	.p2align 3
.L97:
	.loc 1 114 0
	movl	(%rbx), %esi	# *matrix_34,
	leaq	4(%rbx), %r14	#, matrix
.LVL147:
	movl	$.LC14, %edi	#,
	xorl	%eax, %eax	#
	call	printf	#
.LVL148:
.LBB44:
	.loc 1 115 0
	movq	g_width(%rip), %rax	# g_width, D.19196
.LVL149:
	leal	-2(%rax), %r12d	#,
.LVL150:
	cmpl	$1, %eax	#, D.19196
	je	.L96	#,
	movl	%r12d, %eax	# D.19197, D.19195
	leaq	8(%rbx,%rax,4), %rbp	#, D.19198
	movq	%r14, %rbx	# matrix, matrix
.LVL151:
	.p2align 4,,10
	.p2align 3
.L93:
	.loc 1 117 0
	addq	$4, %rbx	#, matrix
.LVL152:
	movl	-4(%rbx), %esi	# MEM[base: matrix_20, offset: -4B], MEM[base: matrix_20, offset: -4B]
	xorl	%eax, %eax	#
	movl	$.LC15, %edi	#,
	call	printf	#
.LVL153:
	.loc 1 115 0
	cmpq	%rbp, %rbx	# D.19198, matrix
	jne	.L93	#,
	leaq	4(%r14,%r12,4), %rbx	#, matrix
.LVL154:
.L92:
.LBE44:
	.loc 1 119 0
	movl	$10, %edi	#,
	call	putchar	#
.LVL155:
	.loc 1 112 0
	subl	$1, %r13d	#, ivtmp.462
.LVL156:
	jne	.L97	#,
.LVL157:
.L100:
	.loc 1 121 0
	popq	%rbx	#
	.cfi_remember_state
	.cfi_def_cfa_offset 40
.LVL158:
	popq	%rbp	#
	.cfi_def_cfa_offset 32
	popq	%r12	#
	.cfi_def_cfa_offset 24
	popq	%r13	#
	.cfi_def_cfa_offset 16
	popq	%r14	#
	.cfi_def_cfa_offset 8
	ret
.LVL159:
.L96:
	.cfi_restore_state
	.loc 1 114 0
	movq	%r14, %rbx	# matrix, matrix
	jmp	.L92	#
	.cfi_endproc
.LFE2259:
	.size	display, .-display
	.section	.text.unlikely
.LCOLDE16:
	.text
.LHOTE16:
	.section	.rodata.str1.1
.LC17:
	.string	"%u "
	.section	.text.unlikely
.LCOLDB18:
	.text
.LHOTB18:
	.p2align 4,,15
	.globl	display_row
	.type	display_row, @function
display_row:
.LFB2260:
	.loc 1 127 0
	.cfi_startproc
.LVL160:
	pushq	%rbp	#
	.cfi_def_cfa_offset 16
	.cfi_offset 6, -16
.LVL161:
	pushq	%rbx	#
	.cfi_def_cfa_offset 24
	.cfi_offset 3, -24
	subq	$8, %rsp	#,
	.cfi_def_cfa_offset 32
	.loc 1 129 0
	movq	(%rdi), %rax	# matrix_obj_5(D)->data,
	.loc 1 130 0
	movl	$.LC17, %edi	#,
.LVL162:
	.loc 1 129 0
	imulq	g_width(%rip), %rsi	# g_width, D.19215
.LVL163:
	leaq	(%rax,%rsi,4), %rbp	#, matrix
.LVL164:
	.loc 1 130 0
	xorl	%eax, %eax	#
	movl	0(%rbp), %esi	# *matrix_12,
	leaq	4(%rbp), %rbx	#, matrix
.LVL165:
	call	printf	#
.LVL166:
.LBB45:
	.loc 1 131 0
	movq	g_width(%rip), %rax	# g_width, D.19215
.LVL167:
	leal	-2(%rax), %edx	#, D.19214
	leaq	8(%rbp,%rdx,4), %rbp	#, D.19217
	cmpl	$1, %eax	#, D.19215
	je	.L105	#,
.LVL168:
	.p2align 4,,10
	.p2align 3
.L104:
	.loc 1 133 0
	addq	$4, %rbx	#, matrix
.LVL169:
	movl	-4(%rbx), %esi	# MEM[base: matrix_20, offset: -4B], MEM[base: matrix_20, offset: -4B]
	xorl	%eax, %eax	#
	movl	$.LC17, %edi	#,
	call	printf	#
.LVL170:
	.loc 1 131 0
	cmpq	%rbp, %rbx	# D.19217, matrix
	jne	.L104	#,
.L105:
.LBE45:
	.loc 1 136 0
	addq	$8, %rsp	#,
	.cfi_def_cfa_offset 24
	.loc 1 135 0
	movl	$10, %edi	#,
	.loc 1 136 0
	popq	%rbx	#
	.cfi_def_cfa_offset 16
.LVL171:
	popq	%rbp	#
	.cfi_def_cfa_offset 8
	.loc 1 135 0
	jmp	putchar	#
.LVL172:
	.cfi_endproc
.LFE2260:
	.size	display_row, .-display_row
	.section	.text.unlikely
.LCOLDE18:
	.text
.LHOTE18:
	.section	.rodata.str1.1
.LC19:
	.string	"%u\n"
	.section	.text.unlikely
.LCOLDB20:
	.text
.LHOTB20:
	.p2align 4,,15
	.globl	display_column
	.type	display_column, @function
display_column:
.LFB2261:
	.loc 1 143 0
	.cfi_startproc
.LVL173:
	pushq	%rbp	#
	.cfi_def_cfa_offset 16
	.cfi_offset 6, -16
.LVL174:
	pushq	%rbx	#
	.cfi_def_cfa_offset 24
	.cfi_offset 3, -24
	.loc 1 145 0
	leaq	0(,%rsi,4), %rbx	#, D.19227
	.loc 1 143 0
	subq	$8, %rsp	#,
	.cfi_def_cfa_offset 32
.LBB46:
	.loc 1 146 0
	movq	g_height(%rip), %rax	# g_height, g_height
.LBE46:
	.loc 1 145 0
	addq	(%rdi), %rbx	# matrix_obj_5(D)->data, matrix
.LVL175:
.LBB47:
	.loc 1 146 0
	movl	%eax, %ebp	# g_height, ivtmp.482
	testl	%eax, %eax	# g_height
	je	.L114	#,
.LVL176:
	.p2align 4,,10
	.p2align 3
.L112:
	.loc 1 148 0
	movl	(%rbx), %esi	# *matrix_24,
	movl	$.LC19, %edi	#,
	xorl	%eax, %eax	#
	call	printf	#
.LVL177:
	.loc 1 149 0
	movq	g_width(%rip), %rax	# g_width, g_width
	leaq	(%rbx,%rax,4), %rbx	#, matrix
.LVL178:
	.loc 1 146 0
	subl	$1, %ebp	#, ivtmp.482
.LVL179:
	jne	.L112	#,
.LVL180:
.L114:
.LBE47:
	.loc 1 151 0
	addq	$8, %rsp	#,
	.cfi_def_cfa_offset 24
	popq	%rbx	#
	.cfi_def_cfa_offset 16
.LVL181:
	popq	%rbp	#
	.cfi_def_cfa_offset 8
	ret
	.cfi_endproc
.LFE2261:
	.size	display_column, .-display_column
	.section	.text.unlikely
.LCOLDE20:
	.text
.LHOTE20:
	.section	.text.unlikely
.LCOLDB21:
	.text
.LHOTB21:
	.p2align 4,,15
	.globl	display_element
	.type	display_element, @function
display_element:
.LFB2262:
	.loc 1 157 0
	.cfi_startproc
.LVL182:
	.loc 1 158 0
	imulq	g_width(%rip), %rsi	# g_width, D.19234
.LVL183:
	movq	(%rdi), %rax	# matrix_obj_2(D)->data, matrix_obj_2(D)->data
	movl	$.LC19, %edi	#,
.LVL184:
	addq	%rsi, %rdx	# D.19234, tmp95
.LVL185:
	movl	(%rax,%rdx,4), %esi	# *_11, *_11
	xorl	%eax, %eax	#
	jmp	printf	#
.LVL186:
	.cfi_endproc
.LFE2262:
	.size	display_element, .-display_element
	.section	.text.unlikely
.LCOLDE21:
	.text
.LHOTE21:
	.section	.text.unlikely
.LCOLDB22:
	.text
.LHOTB22:
	.p2align 4,,15
	.globl	identity_matrix
	.type	identity_matrix, @function
identity_matrix:
.LFB2267:
	.loc 1 234 0
	.cfi_startproc
	pushq	%rbp	#
	.cfi_def_cfa_offset 16
	.cfi_offset 6, -16
.LBB59:
.LBB60:
.LBB61:
.LBB62:
	.loc 1 172 0
	movl	$32, %esi	#,
	movl	$1, %edi	#,
.LBE62:
.LBE61:
.LBE60:
.LBE59:
	.loc 1 234 0
	movq	%rsp, %rbp	#,
	.cfi_def_cfa_register 6
	pushq	%r15	#
	pushq	%r14	#
	pushq	%r13	#
	pushq	%r12	#
	pushq	%rbx	#
	subq	$8, %rsp	#,
	.cfi_offset 15, -24
	.cfi_offset 14, -32
	.cfi_offset 13, -40
	.cfi_offset 12, -48
	.cfi_offset 3, -56
	.loc 1 235 0
	movq	g_nthreads(%rip), %r15	# g_nthreads, D.19287
	cmpq	$1, %r15	#, D.19287
	je	.L118	#,
	.loc 1 235 0 is_stmt 0 discriminator 1
	cmpq	$199, g_width(%rip)	#, g_width
	jg	.L119	#,
.L118:
.LBB71:
.LBB69:
.LBB65:
.LBB63:
	.loc 1 172 0 is_stmt 1
	call	calloc	#
.LVL187:
	.loc 1 173 0
	movq	g_elements(%rip), %rdi	# g_elements,
	movl	$4, %esi	#,
	.loc 1 172 0
	movq	%rax, %rbx	#, matrix_obj
.LVL188:
	.loc 1 173 0
	call	calloc	#
.LVL189:
.LBE63:
.LBE65:
.LBB66:
	.loc 1 197 0
	movq	g_height(%rip), %rsi	# g_height, g_height
.LBE66:
.LBB67:
.LBB64:
	.loc 1 173 0
	movq	%rax, %rdx	#, matrix_cpy
	movq	%rax, (%rbx)	# matrix_cpy, matrix_obj_66->data
.LVL190:
	movq	g_width(%rip), %rax	# g_width, g_width
.LVL191:
.LBE64:
.LBE67:
.LBB68:
	.loc 1 197 0
	leal	-1(%rsi), %ecx	#, i
.LVL192:
	leaq	4(,%rax,4), %rax	#, D.19288
	testl	%esi, %esi	# g_height
	je	.L123	#,
	.p2align 4,,10
	.p2align 3
.L131:
	subl	$1, %ecx	#, i
.LVL193:
	.loc 1 199 0
	movl	$1, (%rdx)	#, MEM[base: matrix_cpy_118, offset: 0B]
	.loc 1 200 0
	addq	%rax, %rdx	# D.19288, matrix_cpy
.LVL194:
	.loc 1 197 0
	cmpl	$-1, %ecx	#, i
	jne	.L131	#,
.L123:
.LBE68:
	.loc 1 203 0
	movl	$0, 8(%rbx)	#, matrix_obj_66->min
.LBE69:
.LBE71:
	.loc 1 237 0
	movq	%rbx, %rax	# matrix_obj, D.19285
.LBB72:
.LBB70:
	.loc 1 204 0
	movl	$1, 12(%rbx)	#, matrix_obj_66->max
	.loc 1 205 0
	movl	%esi, 16(%rbx)	# g_height, matrix_obj_66->sum
.LBE70:
.LBE72:
	.loc 1 275 0
	leaq	-40(%rbp), %rsp	#,
	popq	%rbx	#
.LVL195:
	popq	%r12	#
	popq	%r13	#
	popq	%r14	#
	popq	%r15	#
	popq	%rbp	#
	.cfi_remember_state
	.cfi_def_cfa 7, 8
	ret
.LVL196:
	.p2align 4,,10
	.p2align 3
.L119:
	.cfi_restore_state
.LBB73:
.LBB74:
	.loc 1 172 0
	call	calloc	#
.LVL197:
.LBE74:
.LBE73:
.LBB77:
	.loc 1 246 0
	leal	-1(%r15), %r14d	#, i
.LBE77:
.LBB80:
.LBB75:
	.loc 1 173 0
	movl	$4, %esi	#,
	movq	g_elements(%rip), %rdi	# g_elements,
	.loc 1 172 0
	movq	%rax, %rbx	#, matrix_obj
.LVL198:
	.loc 1 173 0
	call	calloc	#
.LVL199:
.LBE75:
.LBE80:
	.loc 1 244 0
	movq	%r15, %rdi	# D.19287, D.19289
.LBB81:
.LBB76:
	.loc 1 173 0
	movq	%rax, (%rbx)	# tmp158, matrix_obj_84->data
.LVL200:
.LBE76:
.LBE81:
	.loc 1 242 0
	leaq	22(,%r15,8), %rax	#, tmp162
	.loc 1 244 0
	salq	$4, %rdi	#, D.19289
.LVL201:
	.loc 1 242 0
	andq	$-16, %rax	#, tmp166
	subq	%rax, %rsp	# tmp166,
	.loc 1 244 0
	call	malloc	#
.LVL202:
	.loc 1 242 0
	movq	%rsp, %r13	#, tmp170
.LVL203:
	.loc 1 244 0
	movq	%rax, %r12	#, args
.LVL204:
.LBB82:
	.loc 1 246 0
	testl	%r15d, %r15d	# D.19287
	je	.L124	#,
.LVL205:
	movq	g_height(%rip), %rax	# g_height, D.19294
.LVL206:
	movl	%r14d, %edi	# i, i
	xorl	%r8d, %r8d	# start_row
	cqto
	idivq	%r15	# D.19287
.LVL207:
	.p2align 4,,10
	.p2align 3
.L125:
.LBB78:
	.loc 1 248 0
	movl	%edi, %ecx	# i, D.19287
	movq	%rdx, %rsi	# tmp175, D.19287
	subq	%rcx, %rsi	# D.19287, D.19287
	testq	%rsi, %rsi	# D.19287
	setg	%sil	#, D.19290
	.loc 1 249 0
	salq	$4, %rcx	#, D.19289
.LBE78:
	.loc 1 246 0
	subl	$1, %edi	#, i
.LVL208:
.LBB79:
	.loc 1 248 0
	movzbl	%sil, %esi	# D.19290, D.19290
	.loc 1 249 0
	addq	%r12, %rcx	# args, D.19292
	.loc 1 248 0
	addl	%eax, %esi	# D.19291, this_rows
.LVL209:
	.loc 1 249 0
	movl	%r8d, 8(%rcx)	# start_row, _38->start_row
	movq	%rbx, (%rcx)	# matrix_obj, _38->matrix_obj
	.loc 1 255 0
	addl	%esi, %r8d	# this_rows, start_row
.LVL210:
	.loc 1 249 0
	movl	%esi, 12(%rcx)	# this_rows, _38->num_rows
.LBE79:
	.loc 1 246 0
	cmpl	$-1, %edi	#, i
	jne	.L125	#,
.LVL211:
	.p2align 4,,10
	.p2align 3
.L126:
.LBE82:
.LBB83:
	.loc 1 260 0
	movl	%r14d, %eax	# i, D.19289
	xorl	%esi, %esi	#
	movl	$identity_worker, %edx	#,
	leaq	0(%r13,%rax,8), %rdi	#, D.19293
	movq	%rax, %rcx	# D.19289, D.19289
	salq	$4, %rcx	#, D.19289
	addq	%r12, %rcx	# args, D.19292
	call	pthread_create	#
.LVL212:
	.loc 1 258 0
	testl	%r14d, %r14d	# i
	leal	-1(%r14), %r14d	#, i
.LVL213:
	jne	.L126	#,
	movq	g_nthreads(%rip), %rax	# g_nthreads, g_nthreads
	leal	-1(%rax), %r14d	#, i
.LVL214:
.LBE83:
.LBB84:
	.loc 1 263 0
	testl	%eax, %eax	# g_nthreads
	je	.L124	#,
	.p2align 4,,10
	.p2align 3
.L132:
	.loc 1 265 0
	movl	%r14d, %eax	# i, D.19289
	xorl	%esi, %esi	#
	movq	0(%r13,%rax,8), %rdi	# *_56, *_56
	call	pthread_join	#
.LVL215:
	.loc 1 263 0
	testl	%r14d, %r14d	# i
	leal	-1(%r14), %r14d	#, i
.LVL216:
	jne	.L132	#,
.LVL217:
.L124:
.LBE84:
	.loc 1 270 0
	movq	g_height(%rip), %rax	# g_height, g_height
	.loc 1 268 0
	movl	$0, 8(%rbx)	#, matrix_obj_84->min
	.loc 1 272 0
	movq	%r12, %rdi	# args,
	.loc 1 269 0
	movl	$1, 12(%rbx)	#, matrix_obj_84->max
	.loc 1 270 0
	movl	%eax, 16(%rbx)	# g_height, matrix_obj_84->sum
	.loc 1 272 0
	call	free	#
.LVL218:
	.loc 1 275 0
	leaq	-40(%rbp), %rsp	#,
.LVL219:
	.loc 1 274 0
	movq	%rbx, %rax	# matrix_obj, D.19285
	.loc 1 275 0
	popq	%rbx	#
.LVL220:
	popq	%r12	#
.LVL221:
	popq	%r13	#
.LVL222:
	popq	%r14	#
	popq	%r15	#
.LVL223:
	popq	%rbp	#
	.cfi_def_cfa 7, 8
	ret
	.cfi_endproc
.LFE2267:
	.size	identity_matrix, .-identity_matrix
	.section	.text.unlikely
.LCOLDE22:
	.text
.LHOTE22:
	.section	.text.unlikely
.LCOLDB23:
	.text
.LHOTB23:
	.p2align 4,,15
	.globl	random_matrix_serial
	.type	random_matrix_serial, @function
random_matrix_serial:
.LFB2268:
	.loc 1 283 0
	.cfi_startproc
.LVL224:
	pushq	%r13	#
	.cfi_def_cfa_offset 16
	.cfi_offset 13, -16
	pushq	%r12	#
	.cfi_def_cfa_offset 24
	.cfi_offset 12, -24
	pushq	%rbp	#
	.cfi_def_cfa_offset 32
	.cfi_offset 6, -32
	pushq	%rbx	#
	.cfi_def_cfa_offset 40
	.cfi_offset 3, -40
	movl	%edi, %ebx	# seed, seed
.LBB90:
.LBB91:
	.loc 1 182 0
	movl	$32, %edi	#,
.LVL225:
.LBE91:
.LBE90:
	.loc 1 283 0
	subq	$8, %rsp	#,
	.cfi_def_cfa_offset 48
.LBB94:
.LBB92:
	.loc 1 182 0
	call	malloc	#
.LVL226:
	.loc 1 183 0
	movq	g_elements(%rip), %r13	# g_elements, D.19322
	.loc 1 182 0
	movq	%rax, %r12	#, matrix_obj
.LVL227:
	.loc 1 183 0
	leaq	0(,%r13,4), %rdi	#, D.19319
	call	malloc	#
.LVL228:
.LBE92:
.LBE94:
	.loc 1 287 0
	movl	$4, %esi	#,
	movl	$32767, %edi	#,
.LBB95:
.LBB93:
	.loc 1 183 0
	movq	%rax, %rbp	#, matrix_cpy
	movq	%rax, (%r12)	# matrix_cpy, matrix_obj_39->data
.LVL229:
.LBE93:
.LBE95:
	.loc 1 287 0
	call	calloc	#
.LVL230:
	.loc 1 289 0
	movl	%ebx, g_seed(%rip)	# seed, g_seed
	.loc 1 287 0
	movq	%rax, %r8	#, occurances
.LVL231:
.LBB96:
	.loc 1 295 0
	leal	-1(%r13), %eax	#,
.LVL232:
	testl	%r13d, %r13d	# D.19322
	je	.L143	#,
	leaq	4(%rbp,%rax,4), %rax	#, D.19320
.LVL233:
	movl	%ebx, %edi	# seed, D.19321
	xorl	%r9d, %r9d	# sum
	xorl	%ecx, %ecx	# max
	movl	$-1, %esi	#, max
.LVL234:
	.p2align 4,,10
	.p2align 3
.L142:
.LBB97:
.LBB98:
	.loc 1 44 0
	imull	$214013, %edi, %edi	#, D.19321, D.19321
	addl	$2531011, %edi	#, D.19321
	.loc 1 45 0
	movl	%edi, %edx	# D.19321, D.19321
	shrl	$16, %edx	#, D.19321
	andl	$32767, %edx	#,
	cmpl	%edx, %esi	# max, max
.LBE98:
.LBE97:
	.loc 1 297 0
	movl	%edx, 0(%rbp)	# max, MEM[base: matrix_cpy_57, offset: 0B]
	cmova	%edx, %esi	# max,, max, max
.LVL235:
	cmpl	%edx, %ecx	# max, max
	cmovb	%edx, %ecx	# max,, max, max
.LVL236:
	.loc 1 302 0
	addq	$4, %rbp	#, matrix_cpy
.LVL237:
	.loc 1 301 0
	addl	$1, (%r8,%rdx,4)	#, *_25
	.loc 1 300 0
	addl	%edx, %r9d	# max, sum
.LVL238:
	.loc 1 295 0
	cmpq	%rax, %rbp	# D.19320, matrix_cpy
	jne	.L142	#,
	movl	%edi, g_seed(%rip)	# D.19321, g_seed
.LVL239:
.L141:
.LBE96:
	.loc 1 305 0
	movq	%r8, 24(%r12)	# occurances, matrix_obj_39->occurances
	.loc 1 311 0
	movq	%r12, %rax	# matrix_obj,
	.loc 1 306 0
	movl	%esi, 8(%r12)	# max, matrix_obj_39->min
	.loc 1 307 0
	movl	%ecx, 12(%r12)	# max, matrix_obj_39->max
	.loc 1 308 0
	movl	%r9d, 16(%r12)	# sum, matrix_obj_39->sum
	.loc 1 311 0
	addq	$8, %rsp	#,
	.cfi_remember_state
	.cfi_def_cfa_offset 40
	popq	%rbx	#
	.cfi_def_cfa_offset 32
.LVL240:
	popq	%rbp	#
	.cfi_def_cfa_offset 24
.LVL241:
	popq	%r12	#
	.cfi_def_cfa_offset 16
.LVL242:
	popq	%r13	#
	.cfi_def_cfa_offset 8
	ret
.LVL243:
.L143:
	.cfi_restore_state
	.loc 1 293 0
	xorl	%r9d, %r9d	# sum
	.loc 1 292 0
	xorl	%ecx, %ecx	# max
	.loc 1 291 0
	movl	$-1, %esi	#, max
	jmp	.L141	#
	.cfi_endproc
.LFE2268:
	.size	random_matrix_serial, .-random_matrix_serial
	.section	.text.unlikely
.LCOLDE23:
	.text
.LHOTE23:
	.section	.text.unlikely
.LCOLDB24:
	.text
.LHOTB24:
	.p2align 4,,15
	.globl	random_matrix
	.type	random_matrix, @function
random_matrix:
.LFB2270:
	.loc 1 353 0
	.cfi_startproc
.LVL244:
	subq	$8, %rsp	#,
	.cfi_def_cfa_offset 16
	.loc 1 356 0
	call	random_matrix_serial	#
.LVL245:
	.loc 1 407 0
	addq	$8, %rsp	#,
	.cfi_def_cfa_offset 8
	ret
	.cfi_endproc
.LFE2270:
	.size	random_matrix, .-random_matrix
	.section	.text.unlikely
.LCOLDE24:
	.text
.LHOTE24:
	.section	.text.unlikely
.LCOLDB25:
	.text
.LHOTB25:
	.p2align 4,,15
	.globl	uniform_matrix
	.type	uniform_matrix, @function
uniform_matrix:
.LFB2273:
	.loc 1 464 0
	.cfi_startproc
.LVL246:
	pushq	%rbp	#
	.cfi_def_cfa_offset 16
	.cfi_offset 6, -16
	movq	%rsp, %rbp	#,
	.cfi_def_cfa_register 6
	pushq	%r15	#
	pushq	%r14	#
	.cfi_offset 15, -24
	.cfi_offset 14, -32
	movl	%edi, %r14d	# value, value
	pushq	%r13	#
	pushq	%r12	#
	pushq	%rbx	#
	subq	$24, %rsp	#,
	.cfi_offset 13, -40
	.cfi_offset 12, -48
	.cfi_offset 3, -56
	.loc 1 465 0
	testl	%edi, %edi	# value
	je	.L180	#,
	.loc 1 470 0
	movq	g_nthreads(%rip), %rcx	# g_nthreads, D.19389
	cmpq	$1, %rcx	#, D.19389
	je	.L151	#,
	.loc 1 470 0 is_stmt 0 discriminator 1
	cmpq	$199, g_width(%rip)	#, g_width
	jg	.L152	#,
.L151:
.LVL247:
.LBB114:
.LBB115:
.LBB116:
.LBB117:
	.loc 1 182 0 is_stmt 1
	movl	$32, %edi	#,
.LVL248:
	call	malloc	#
.LVL249:
	.loc 1 183 0
	movq	g_elements(%rip), %r12	# g_elements, D.19389
	.loc 1 182 0
	movq	%rax, %rbx	#, matrix_obj
.LVL250:
	.loc 1 183 0
	leaq	0(,%r12,4), %rdi	#, D.19392
	call	malloc	#
.LVL251:
	movq	%rax, %rdx	#, matrix_cpy
	movq	%rax, (%rbx)	# matrix_cpy, matrix_obj_95->data
.LVL252:
.LBE117:
.LBE116:
.LBB118:
	.loc 1 425 0
	leal	-1(%r12), %eax	#,
.LVL253:
	leaq	4(%rdx,%rax,4), %rax	#, D.19393
.LVL254:
	testl	%r12d, %r12d	# D.19389
	je	.L155	#,
.LVL255:
	.p2align 4,,10
	.p2align 3
.L154:
	.loc 1 427 0
	addq	$4, %rdx	#, matrix_cpy
.LVL256:
	movl	%r14d, -4(%rdx)	# value, MEM[base: matrix_cpy_86, offset: -4B]
	.loc 1 425 0
	cmpq	%rax, %rdx	# D.19393, matrix_cpy
	jne	.L154	#,
.L155:
.LBE118:
	.loc 1 432 0
	movl	%r14d, 8(%rbx)	# value, matrix_obj_95->min
	.loc 1 434 0
	movq	%rbx, %rax	# matrix_obj, D.19387
	.loc 1 433 0
	movl	%r14d, 12(%rbx)	# value, matrix_obj_95->max
	.loc 1 434 0
	imull	%r12d, %r14d	# D.19389, D.19395
.LVL257:
	.loc 1 430 0
	movq	$0, 24(%rbx)	#, matrix_obj_95->occurances
	.loc 1 434 0
	movl	%r14d, 16(%rbx)	# D.19395, matrix_obj_95->sum
.LBE115:
.LBE114:
	.loc 1 516 0
	leaq	-40(%rbp), %rsp	#,
	popq	%rbx	#
.LVL258:
	popq	%r12	#
	popq	%r13	#
	popq	%r14	#
	popq	%r15	#
	popq	%rbp	#
	.cfi_remember_state
	.cfi_def_cfa 7, 8
	ret
.LVL259:
	.p2align 4,,10
	.p2align 3
.L152:
	.cfi_restore_state
.LBB119:
.LBB120:
	.loc 1 182 0
	movl	$32, %edi	#,
.LVL260:
	movq	%rcx, -56(%rbp)	# D.19389, %sfp
	call	malloc	#
.LVL261:
	.loc 1 183 0
	movq	g_elements(%rip), %rdx	# g_elements, D.19398
	.loc 1 182 0
	movq	%rax, %rbx	#, matrix_obj
.LVL262:
	.loc 1 183 0
	leaq	0(,%rdx,4), %rdi	#, D.19392
	movq	%rdx, -64(%rbp)	# D.19398, %sfp
	call	malloc	#
.LVL263:
.LBE120:
.LBE119:
	.loc 1 477 0
	movq	-56(%rbp), %rcx	# %sfp, D.19389
.LBB122:
.LBB121:
	.loc 1 183 0
	movq	%rax, (%rbx)	# tmp175, matrix_obj_100->data
.LVL264:
.LBE121:
.LBE122:
	.loc 1 477 0
	leaq	22(,%rcx,8), %rax	#, tmp179
	.loc 1 479 0
	leaq	(%rcx,%rcx,2), %rdi	#, D.19392
	.loc 1 477 0
	andq	$-16, %rax	#, tmp183
	subq	%rax, %rsp	# tmp183,
	.loc 1 479 0
	salq	$3, %rdi	#, tmp191
	call	malloc	#
.LVL265:
.LBB123:
	.loc 1 482 0
	movq	-56(%rbp), %rcx	# %sfp, D.19389
.LBE123:
	.loc 1 477 0
	movq	%rsp, %r12	#, tmp187
.LVL266:
	.loc 1 479 0
	movq	%rax, %r15	#, args
.LVL267:
.LBB126:
	.loc 1 482 0
	movq	-64(%rbp), %rdx	# %sfp, D.19398
	leal	-1(%rcx), %r13d	#, i
.LVL268:
	testl	%ecx, %ecx	# D.19389
	je	.L156	#,
.LVL269:
	movq	g_height(%rip), %rax	# g_height, D.19398
.LVL270:
	movl	%r13d, %edi	# i, i
	xorl	%r8d, %r8d	# start_row
	cqto
	idivq	%rcx	# D.19389
.LVL271:
	.p2align 4,,10
	.p2align 3
.L157:
.LBB124:
	.loc 1 484 0
	movl	%edi, %esi	# i, D.19389
	movq	%rdx, %rcx	# tmp195, D.19389
	subq	%rsi, %rcx	# D.19389, D.19389
	.loc 1 485 0
	leaq	(%rsi,%rsi,2), %rsi	#, D.19392
	.loc 1 484 0
	testq	%rcx, %rcx	# D.19389
	.loc 1 485 0
	leaq	(%r15,%rsi,8), %rsi	#, D.19396
	.loc 1 484 0
	setg	%cl	#, D.19394
.LBE124:
	.loc 1 482 0
	subl	$1, %edi	#, i
.LVL272:
.LBB125:
	.loc 1 484 0
	movzbl	%cl, %ecx	# D.19394, D.19394
	.loc 1 485 0
	movl	%r8d, 12(%rsi)	# start_row, _42->start_row
	.loc 1 484 0
	addl	%eax, %ecx	# D.19395, this_rows
.LVL273:
	.loc 1 485 0
	movq	%rbx, (%rsi)	# matrix_obj, _42->matrix_obj
	movl	%r14d, 8(%rsi)	# value, _42->value
	.loc 1 492 0
	addl	%ecx, %r8d	# this_rows, start_row
.LVL274:
	.loc 1 485 0
	movl	%ecx, 16(%rsi)	# this_rows, _42->num_rows
.LBE125:
	.loc 1 482 0
	cmpl	$-1, %edi	#, i
	jne	.L157	#,
.LVL275:
	.p2align 4,,10
	.p2align 3
.L158:
.LBE126:
.LBB127:
	.loc 1 497 0
	movl	%r13d, %eax	# i, D.19392
	xorl	%esi, %esi	#
	leaq	(%rax,%rax,2), %rdx	#, D.19392
	leaq	(%r15,%rdx,8), %rcx	#, D.19396
	movl	$uniform_worker, %edx	#,
	leaq	(%r12,%rax,8), %rdi	#, D.19397
	call	pthread_create	#
.LVL276:
	.loc 1 495 0
	testl	%r13d, %r13d	# i
	leal	-1(%r13), %r13d	#, i
.LVL277:
	jne	.L158	#,
	movq	g_nthreads(%rip), %rax	# g_nthreads, g_nthreads
.LBE127:
	.loc 1 500 0
	movq	24(%rbx), %rdi	# matrix_obj_100->occurances, D.19393
	movq	g_elements(%rip), %rdx	# g_elements, D.19398
	leal	-1(%rax), %r15d	#, D.19390
.LVL278:
	movl	%eax, %ecx	# g_nthreads, D.19390
	movl	%r15d, %r13d	# D.19390, i
.LVL279:
	testq	%rdi, %rdi	# D.19393
	je	.L159	#,
.L161:
	movq	%rdx, -64(%rbp)	# D.19398, %sfp
	.loc 1 503 0
	movl	%r15d, %r13d	# D.19390, i
	movl	%ecx, -56(%rbp)	# D.19390, %sfp
.LVL280:
	.loc 1 502 0
	call	free	#
.LVL281:
	.loc 1 503 0
	movl	-56(%rbp), %ecx	# %sfp, D.19390
	movq	$0, 24(%rbx)	#, matrix_obj_100->occurances
	movq	-64(%rbp), %rdx	# %sfp, D.19398
.L159:
	.loc 1 506 0
	movl	%r14d, 8(%rbx)	# value, matrix_obj_100->min
	.loc 1 507 0
	movl	%r14d, 12(%rbx)	# value, matrix_obj_100->max
	.loc 1 508 0
	imull	%edx, %r14d	# D.19398, D.19395
.LVL282:
	movl	%r14d, 16(%rbx)	# D.19395, matrix_obj_100->sum
.LVL283:
.LBB128:
	.loc 1 510 0
	testl	%ecx, %ecx	# D.19390
	je	.L178	#,
.LVL284:
	.p2align 4,,10
	.p2align 3
.L160:
	.loc 1 512 0
	movl	%r13d, %eax	# i, D.19392
	xorl	%esi, %esi	#
	movq	(%r12,%rax,8), %rdi	# *_70, *_70
	call	pthread_join	#
.LVL285:
	.loc 1 510 0
	testl	%r13d, %r13d	# i
	leal	-1(%r13), %r13d	#, i
.LVL286:
	jne	.L160	#,
.LVL287:
.L178:
.LBE128:
	.loc 1 516 0
	leaq	-40(%rbp), %rsp	#,
.LVL288:
	.loc 1 508 0
	movq	%rbx, %rax	# matrix_obj, D.19387
	.loc 1 516 0
	popq	%rbx	#
.LVL289:
	popq	%r12	#
.LVL290:
	popq	%r13	#
	popq	%r14	#
	popq	%r15	#
	popq	%rbp	#
	.cfi_remember_state
	.cfi_def_cfa 7, 8
	ret
.LVL291:
	.p2align 4,,10
	.p2align 3
.L180:
	.cfi_restore_state
.LBB129:
.LBB130:
	.loc 1 172 0
	movl	$32, %esi	#,
	movl	$1, %edi	#,
.LVL292:
	call	calloc	#
.LVL293:
	.loc 1 173 0
	movq	g_elements(%rip), %rdi	# g_elements,
	movl	$4, %esi	#,
	.loc 1 172 0
	movq	%rax, %rbx	#, tmp164
.LVL294:
	.loc 1 173 0
	call	calloc	#
.LVL295:
	movq	%rax, (%rbx)	# tmp165, matrix_obj_77->data
.LBE130:
.LBE129:
	.loc 1 516 0
	leaq	-40(%rbp), %rsp	#,
	.loc 1 467 0
	movq	%rbx, %rax	# tmp164, D.19387
	.loc 1 516 0
	popq	%rbx	#
.LVL296:
	popq	%r12	#
	popq	%r13	#
	popq	%r14	#
.LVL297:
	popq	%r15	#
	popq	%rbp	#
	.cfi_remember_state
	.cfi_def_cfa 7, 8
	ret
.LVL298:
.L156:
	.cfi_restore_state
	.loc 1 500 0
	movq	24(%rbx), %rdi	# matrix_obj_100->occurances, D.19393
	movl	$-1, %r15d	#, D.19390
	xorl	%ecx, %ecx	# D.19390
	testq	%rdi, %rdi	# D.19393
	jne	.L161	#,
	.loc 1 508 0
	imull	%r14d, %edx	# value, D.19395
	.loc 1 506 0
	movl	%r14d, 8(%rbx)	# value, matrix_obj_100->min
	.loc 1 507 0
	movl	%r14d, 12(%rbx)	# value, matrix_obj_100->max
	.loc 1 508 0
	movl	%edx, 16(%rbx)	# D.19395, matrix_obj_100->sum
	jmp	.L178	#
	.cfi_endproc
.LFE2273:
	.size	uniform_matrix, .-uniform_matrix
	.section	.text.unlikely
.LCOLDE25:
	.text
.LHOTE25:
	.section	.text.unlikely
.LCOLDB26:
	.text
.LHOTB26:
	.p2align 4,,15
	.globl	sequence_matrix
	.type	sequence_matrix, @function
sequence_matrix:
.LFB2276:
	.loc 1 600 0
	.cfi_startproc
.LVL299:
	pushq	%rbp	#
	.cfi_def_cfa_offset 16
	.cfi_offset 6, -16
	movl	%edi, %r8d	# start, start
	movq	%rsp, %rbp	#,
	.cfi_def_cfa_register 6
	pushq	%r15	#
	pushq	%r14	#
	pushq	%r13	#
	pushq	%r12	#
	pushq	%rbx	#
	subq	$56, %rsp	#,
	.cfi_offset 15, -24
	.cfi_offset 14, -32
	.cfi_offset 13, -40
	.cfi_offset 12, -48
	.cfi_offset 3, -56
	.loc 1 601 0
	testl	%esi, %esi	# step
	jne	.L182	#,
	.loc 1 603 0
	testl	%edi, %edi	# start
	jne	.L183	#,
.LBB144:
.LBB145:
	.loc 1 172 0
	movl	$32, %esi	#,
.LVL300:
	movl	$1, %edi	#,
.LVL301:
	call	calloc	#
.LVL302:
	.loc 1 173 0
	movq	g_elements(%rip), %rdi	# g_elements,
	movl	$4, %esi	#,
	.loc 1 172 0
	movq	%rax, %rbx	#, tmp179
.LVL303:
	.loc 1 173 0
	call	calloc	#
.LVL304:
	movq	%rax, (%rbx)	# tmp180, matrix_obj_107->data
.LBE145:
.LBE144:
	.loc 1 673 0
	leaq	-40(%rbp), %rsp	#,
	.loc 1 605 0
	movq	%rbx, %rax	# tmp179, D.19473
	.loc 1 673 0
	popq	%rbx	#
.LVL305:
	popq	%r12	#
	popq	%r13	#
	popq	%r14	#
	popq	%r15	#
	popq	%rbp	#
	.cfi_remember_state
	.cfi_def_cfa 7, 8
	ret
.LVL306:
	.p2align 4,,10
	.p2align 3
.L182:
	.cfi_restore_state
	.loc 1 610 0
	movq	g_nthreads(%rip), %rcx	# g_nthreads, D.19475
	cmpq	$1, %rcx	#, D.19475
	je	.L185	#,
	.loc 1 610 0 is_stmt 0 discriminator 1
	cmpq	$199, g_width(%rip)	#, g_width
	jg	.L186	#,
.L185:
.LBB146:
.LBB147:
.LBB148:
.LBB149:
	.loc 1 182 0 is_stmt 1
	movl	$32, %edi	#,
.LVL307:
	movl	%esi, -64(%rbp)	# step, %sfp
	movl	%r8d, -56(%rbp)	# start, %sfp
.LVL308:
	call	malloc	#
.LVL309:
	.loc 1 183 0
	movq	g_elements(%rip), %r12	# g_elements, D.19475
	.loc 1 182 0
	movq	%rax, %rbx	#, matrix_obj
.LVL310:
	.loc 1 183 0
	leaq	0(,%r12,4), %rdi	#, D.19476
	call	malloc	#
.LVL311:
	movq	%rax, %rdx	#, matrix_cpy
	movq	%rax, (%rbx)	# matrix_cpy, matrix_obj_104->data
.LVL312:
.LBE149:
.LBE148:
.LBB150:
	.loc 1 533 0
	leal	-1(%r12), %eax	#,
.LVL313:
	testl	%r12d, %r12d	# D.19475
	je	.L196	#,
	movl	-56(%rbp), %r8d	# %sfp, start
	leaq	4(%rdx,%rax,4), %rax	#, D.19478
.LVL314:
	xorl	%r14d, %r14d	# sum
	xorl	%r12d, %r12d	# max
.LVL315:
	movl	-64(%rbp), %esi	# %sfp, step
	movl	$-1, %r13d	#, max
.LVL316:
	.p2align 4,,10
	.p2align 3
.L188:
	cmpl	%r8d, %r13d	# max, max
	.loc 1 535 0
	movl	%r8d, (%rdx)	# max, MEM[base: matrix_cpy_178, offset: 0B]
	cmova	%r8d, %r13d	# max,, max, max
.LVL317:
	cmpl	%r8d, %r12d	# max, max
	cmovb	%r8d, %r12d	# max,, max, max
.LVL318:
	.loc 1 539 0
	addq	$4, %rdx	#, matrix_cpy
.LVL319:
	.loc 1 538 0
	addl	%r8d, %r14d	# max, sum
.LVL320:
	.loc 1 540 0
	addl	%esi, %r8d	# step, max
.LVL321:
	.loc 1 533 0
	cmpq	%rax, %rdx	# D.19478, matrix_cpy
	jne	.L188	#,
.LVL322:
.L187:
.LBE150:
	.loc 1 543 0
	movq	24(%rbx), %rdi	# matrix_obj_104->occurances, D.19478
	testq	%rdi, %rdi	# D.19478
	je	.L189	#,
	.loc 1 545 0
	call	free	#
.LVL323:
	.loc 1 546 0
	movq	$0, 24(%rbx)	#, matrix_obj_104->occurances
.L189:
	.loc 1 549 0
	movl	%r13d, 8(%rbx)	# max, matrix_obj_104->min
.LBE147:
.LBE146:
	.loc 1 612 0
	movq	%rbx, %rax	# matrix_obj, D.19473
.LBB153:
.LBB151:
	.loc 1 550 0
	movl	%r12d, 12(%rbx)	# max, matrix_obj_104->max
	.loc 1 551 0
	movl	%r14d, 16(%rbx)	# sum, matrix_obj_104->sum
.LBE151:
.LBE153:
	.loc 1 673 0
	leaq	-40(%rbp), %rsp	#,
	popq	%rbx	#
.LVL324:
	popq	%r12	#
	popq	%r13	#
	popq	%r14	#
	popq	%r15	#
	popq	%rbp	#
	.cfi_remember_state
	.cfi_def_cfa 7, 8
.LVL325:
	ret
.LVL326:
	.p2align 4,,10
	.p2align 3
.L183:
	.cfi_restore_state
	.loc 1 607 0
	call	uniform_matrix	#
.LVL327:
	.loc 1 673 0
	leaq	-40(%rbp), %rsp	#,
	popq	%rbx	#
	popq	%r12	#
	popq	%r13	#
	popq	%r14	#
	popq	%r15	#
	popq	%rbp	#
	.cfi_remember_state
	.cfi_def_cfa 7, 8
	ret
.LVL328:
	.p2align 4,,10
	.p2align 3
.L186:
	.cfi_restore_state
	movl	%edi, -64(%rbp)	# start, %sfp
	.loc 1 615 0
	leaq	0(,%rcx,8), %r15	#, tmp188
	movq	%rcx, %rdi	# D.19475, tmp189
.LVL329:
	salq	$6, %rdi	#, tmp189
	movq	%rcx, -56(%rbp)	# D.19475, %sfp
	subq	%r15, %rdi	# tmp188, D.19476
	movl	%esi, -72(%rbp)	# step, %sfp
	.loc 1 622 0
	addq	$22, %r15	#, tmp202
	.loc 1 615 0
	call	malloc	#
.LVL330:
.LBB154:
.LBB155:
	.loc 1 182 0
	movl	$32, %edi	#,
.LBE155:
.LBE154:
	.loc 1 622 0
	andq	$-16, %r15	#, tmp206
	.loc 1 615 0
	movq	%rax, -96(%rbp)	#, %sfp
.LVL331:
.LBB158:
.LBB156:
	.loc 1 182 0
	call	malloc	#
.LVL332:
	.loc 1 183 0
	movq	g_elements(%rip), %rsi	# g_elements, tmp277
	.loc 1 182 0
	movq	%rax, %r14	#, matrix_obj
.LVL333:
	.loc 1 183 0
	leaq	0(,%rsi,4), %rdi	#, D.19476
	call	malloc	#
.LVL334:
.LBE156:
.LBE158:
	.loc 1 618 0
	movq	-56(%rbp), %rcx	# %sfp, D.19475
.LBB159:
.LBB157:
	.loc 1 183 0
	movq	%r14, -88(%rbp)	# matrix_obj, %sfp
	movq	%rax, (%r14)	# tmp195, matrix_obj_131->data
.LBE157:
.LBE159:
	.loc 1 618 0
	leaq	0(,%rcx,4), %r14	#, D.19476
.LVL335:
	movq	%r14, %rdi	# D.19476,
	call	malloc	#
.LVL336:
	.loc 1 619 0
	movq	%r14, %rdi	# D.19476,
	.loc 1 618 0
	movq	%rax, %r12	#, mins
.LVL337:
	.loc 1 619 0
	call	malloc	#
.LVL338:
	.loc 1 620 0
	movq	%r14, %rdi	# D.19476,
	.loc 1 619 0
	movq	%rax, %r13	#, maxes
.LVL339:
	.loc 1 620 0
	call	malloc	#
.LVL340:
.LBB160:
	.loc 1 625 0
	movq	-56(%rbp), %rcx	# %sfp, D.19475
.LBE160:
	.loc 1 622 0
	subq	%r15, %rsp	# tmp206,
	.loc 1 620 0
	movq	%rax, %r14	#, sums
.LVL341:
	.loc 1 622 0
	movq	%rsp, %r15	#, tmp210
.LVL342:
.LBB163:
	.loc 1 625 0
	leal	-1(%rcx), %ebx	#, i
.LVL343:
	testl	%ecx, %ecx	# D.19475
	je	.L197	#,
	movq	g_height(%rip), %rax	# g_height, D.19483
.LVL344:
	movl	%ebx, %edi	# i, i
	movl	%ebx, -80(%rbp)	# i, %sfp
	xorl	%r11d, %r11d	# start_row
	movq	-96(%rbp), %rbx	# %sfp, args
.LVL345:
	movl	-72(%rbp), %esi	# %sfp, step
	movq	-88(%rbp), %r15	# %sfp, matrix_obj
	cqto
	movl	-64(%rbp), %r8d	# %sfp, start
	movq	%rsp, -64(%rbp)	# tmp210, %sfp
.LVL346:
	idivq	%rcx	# D.19475
	movl	%eax, %r9d	# D.19475, D.19480
.LVL347:
	.p2align 4,,10
	.p2align 3
.L191:
.LBB161:
	.loc 1 627 0
	movl	%edi, %eax	# i, D.19475
	movq	%rdx, %rcx	# tmp213, D.19475
	.loc 1 628 0
	leaq	0(,%rax,8), %r10	#, tmp222
	.loc 1 627 0
	subq	%rax, %rcx	# D.19475, D.19475
	testq	%rcx, %rcx	# D.19475
	setg	%cl	#, D.19479
	.loc 1 628 0
	salq	$6, %rax	#, tmp223
	subq	%r10, %rax	# tmp222, D.19476
	.loc 1 627 0
	movzbl	%cl, %ecx	# D.19479, D.19479
	.loc 1 628 0
	addq	%rbx, %rax	# args, D.19481
	.loc 1 627 0
	addl	%r9d, %ecx	# D.19480, this_rows
.LVL348:
	.loc 1 628 0
	movl	%edi, 48(%rax)	# i, _57->id
.LBE161:
	.loc 1 625 0
	subl	$1, %edi	#, i
.LVL349:
.LBB162:
	.loc 1 628 0
	movl	%r11d, 16(%rax)	# start_row, _57->start_row
	.loc 1 640 0
	addl	%ecx, %r11d	# this_rows, start_row
.LVL350:
	.loc 1 628 0
	movq	%r15, (%rax)	# matrix_obj, _57->matrix_obj
	movl	%r8d, 8(%rax)	# start, _57->start_value
	movl	%esi, 12(%rax)	# step, _57->increment
	movl	%ecx, 20(%rax)	# this_rows, _57->num_rows
	movq	%r12, 24(%rax)	# mins, _57->mins
	movq	%r13, 32(%rax)	# maxes, _57->maxes
	movq	%r14, 40(%rax)	# sums, _57->sums
.LBE162:
	.loc 1 625 0
	cmpl	$-1, %edi	#, i
	jne	.L191	#,
	movq	%r12, -56(%rbp)	# mins, %sfp
.LVL351:
	movq	-64(%rbp), %r15	# %sfp, tmp210
	movl	-80(%rbp), %r12d	# %sfp, i
.LVL352:
	.p2align 4,,10
	.p2align 3
.L192:
.LBE163:
.LBB164:
	.loc 1 645 0
	movl	%r12d, %ecx	# i, D.19476
	xorl	%esi, %esi	#
	movl	$sequence_worker, %edx	#,
	leaq	0(,%rcx,8), %rdi	#, tmp226
	salq	$6, %rcx	#, tmp227
	subq	%rdi, %rcx	# tmp226, D.19476
	addq	%r15, %rdi	# tmp210, D.19482
	addq	%rbx, %rcx	# args, D.19481
	call	pthread_create	#
.LVL353:
	.loc 1 643 0
	testl	%r12d, %r12d	# i
	leal	-1(%r12), %r12d	#, i
.LVL354:
	jne	.L192	#,
	movq	%rbx, -96(%rbp)	# args, %sfp
	movq	-56(%rbp), %r12	# %sfp, mins
.LVL355:
	movl	g_nthreads(%rip), %ebx	# g_nthreads, D.19484
.LVL356:
.L190:
.LBE164:
	.loc 1 648 0
	movq	-88(%rbp), %rax	# %sfp, matrix_obj
	movq	24(%rax), %rdi	# matrix_obj_131->occurances, D.19478
	testq	%rdi, %rdi	# D.19478
	je	.L193	#,
	.loc 1 650 0
	call	free	#
.LVL357:
	.loc 1 651 0
	movq	-88(%rbp), %rax	# %sfp, matrix_obj
	movq	$0, 24(%rax)	#, matrix_obj_131->occurances
.L193:
.LVL358:
	leal	-1(%rbx), %ecx	#, ivtmp.578
	.loc 1 654 0
	movl	$-1, %r9d	#, min
	.loc 1 656 0
	xorl	%ebx, %ebx	# sum
.LVL359:
	movq	%r13, -72(%rbp)	# maxes, %sfp
.LVL360:
	movq	%r14, -80(%rbp)	# sums, %sfp
	movl	%ecx, %r13d	# ivtmp.578, ivtmp.578
.LVL361:
	movl	%r9d, %r14d	# min, min
.LVL362:
	movq	%r12, %rcx	# mins, mins
.LVL363:
	movq	%r15, %r9	# tmp210, tmp210
	movl	%ebx, %r15d	# sum, sum
.LBB165:
	.loc 1 658 0
	jmp	.L194	#
.LVL364:
	.p2align 4,,10
	.p2align 3
.L195:
	.loc 1 660 0
	movl	%r13d, %r12d	# ivtmp.578, D.19476
	xorl	%esi, %esi	#
	movq	%rcx, -64(%rbp)	# mins, %sfp
	movq	(%r9,%r12,8), %rdi	# *_85, *_85
	movq	%r9, -56(%rbp)	# tmp210, %sfp
	call	pthread_join	#
.LVL365:
	.loc 1 661 0
	movq	-80(%rbp), %rax	# %sfp, sums
	.loc 1 662 0
	movq	-64(%rbp), %rcx	# %sfp, mins
	movq	-56(%rbp), %r9	# %sfp, tmp210
	.loc 1 661 0
	addl	(%rax,%r12,4), %r15d	# *_89, sum
.LVL366:
	.loc 1 662 0
	movl	(%rcx,%r12,4), %eax	# *_92, min
	cmpl	%eax, %r14d	# min, min
	cmova	%eax, %r14d	# min,, min, min
.LVL367:
	.loc 1 663 0
	movq	-72(%rbp), %rax	# %sfp, maxes
	movl	(%rax,%r12,4), %eax	# *_95, max
	cmpl	%eax, %ebx	# max, max
	cmovb	%eax, %ebx	# max,, max, max
.LVL368:
	subl	$1, %r13d	#, ivtmp.578
.LVL369:
.L194:
	.loc 1 658 0 discriminator 1
	cmpl	$-1, %r13d	#, ivtmp.578
	jne	.L195	#,
	movl	%ebx, %r8d	# max, max
	movl	%r15d, %ebx	# sum, sum
.LVL370:
.LBE165:
	.loc 1 666 0
	movq	-88(%rbp), %r15	# %sfp, matrix_obj
.LVL371:
	.loc 1 670 0
	movq	-96(%rbp), %rdi	# %sfp,
	.loc 1 666 0
	movq	%r15, %rax	# matrix_obj, matrix_obj
	movl	%r14d, 8(%rax)	# min, matrix_obj_131->min
	.loc 1 668 0
	movl	%ebx, 16(%r15)	# sum, matrix_obj_131->sum
	.loc 1 667 0
	movl	%r8d, 12(%r15)	# max, matrix_obj_131->max
	.loc 1 670 0
	call	free	#
.LVL372:
	.loc 1 673 0
	leaq	-40(%rbp), %rsp	#,
.LVL373:
	.loc 1 672 0
	movq	%r15, %rax	# matrix_obj, D.19473
	.loc 1 673 0
	popq	%rbx	#
.LVL374:
	popq	%r12	#
	popq	%r13	#
.LVL375:
	popq	%r14	#
.LVL376:
	popq	%r15	#
	popq	%rbp	#
	.cfi_remember_state
	.cfi_def_cfa 7, 8
	ret
.LVL377:
.L196:
	.cfi_restore_state
.LBB166:
.LBB152:
	.loc 1 531 0
	xorl	%r14d, %r14d	# sum
	.loc 1 530 0
	xorl	%r12d, %r12d	# max
	.loc 1 529 0
	movl	$-1, %r13d	#, max
	jmp	.L187	#
.LVL378:
.L197:
.LBE152:
.LBE166:
.LBB167:
	.loc 1 625 0
	xorl	%ebx, %ebx	# D.19484
.LVL379:
	jmp	.L190	#
.LBE167:
	.cfi_endproc
.LFE2276:
	.size	sequence_matrix, .-sequence_matrix
	.section	.text.unlikely
.LCOLDE26:
	.text
.LHOTE26:
	.section	.text.unlikely
.LCOLDB27:
	.text
.LHOTB27:
	.p2align 4,,15
	.globl	cloned
	.type	cloned, @function
cloned:
.LFB2279:
	.loc 1 726 0
	.cfi_startproc
.LVL380:
	pushq	%rbp	#
	.cfi_def_cfa_offset 16
	.cfi_offset 6, -16
	movq	%rsp, %rbp	#,
	.cfi_def_cfa_register 6
	pushq	%r15	#
	pushq	%r14	#
	.cfi_offset 15, -24
	.cfi_offset 14, -32
	movq	%rdi, %r14	# matrix_obj, matrix_obj
	pushq	%r13	#
	pushq	%r12	#
	pushq	%rbx	#
	subq	$24, %rsp	#,
	.cfi_offset 13, -40
	.cfi_offset 12, -48
	.cfi_offset 3, -56
	.loc 1 728 0
	movq	g_nthreads(%rip), %rcx	# g_nthreads, D.19525
	cmpq	$1, %rcx	#, D.19525
	je	.L228	#,
.LBB178:
.LBB179:
	.loc 1 182 0
	movl	$32, %edi	#,
.LVL381:
	movq	%rcx, -56(%rbp)	# D.19525, %sfp
	call	malloc	#
.LVL382:
	movq	%rax, %r12	#, result_obj
.LVL383:
	.loc 1 183 0
	movq	g_elements(%rip), %rax	# g_elements, tmp229
.LVL384:
	leaq	0(,%rax,4), %rdi	#, D.19527
	call	malloc	#
.LVL385:
.LBE179:
.LBE178:
	.loc 1 735 0
	movq	-56(%rbp), %rcx	# %sfp, D.19525
.LBB181:
.LBB180:
	.loc 1 183 0
	movq	%rax, (%r12)	# tmp173, result_obj_87->data
.LVL386:
.LBE180:
.LBE181:
	.loc 1 735 0
	leaq	22(,%rcx,8), %rax	#, tmp177
	.loc 1 737 0
	leaq	(%rcx,%rcx,2), %rdi	#, D.19527
	.loc 1 735 0
	andq	$-16, %rax	#, tmp181
	subq	%rax, %rsp	# tmp181,
	.loc 1 737 0
	salq	$3, %rdi	#, tmp189
	call	malloc	#
.LVL387:
.LBB182:
	.loc 1 739 0
	movq	-56(%rbp), %rcx	# %sfp, D.19525
.LBE182:
	.loc 1 735 0
	movq	%rsp, %r13	#, tmp185
.LVL388:
	.loc 1 737 0
	movq	%rax, %rbx	#, args
.LVL389:
.LBB185:
	.loc 1 739 0
	leal	-1(%rcx), %r15d	#, i
.LVL390:
	testl	%ecx, %ecx	# D.19525
	je	.L215	#,
.LVL391:
	movq	g_height(%rip), %rax	# g_height, D.19533
.LVL392:
	movl	%r15d, %edi	# i, i
	xorl	%r8d, %r8d	# start_row
	cqto
	idivq	%rcx	# D.19525
.LVL393:
	.p2align 4,,10
	.p2align 3
.L216:
.LBB183:
	.loc 1 741 0
	movl	%edi, %esi	# i, D.19525
	movq	%rdx, %rcx	# tmp193, D.19525
	subq	%rsi, %rcx	# D.19525, D.19525
	.loc 1 742 0
	leaq	(%rsi,%rsi,2), %rsi	#, D.19527
	.loc 1 741 0
	testq	%rcx, %rcx	# D.19525
	.loc 1 742 0
	leaq	(%rbx,%rsi,8), %rsi	#, D.19530
	.loc 1 741 0
	setg	%cl	#, D.19528
.LBE183:
	.loc 1 739 0
	subl	$1, %edi	#, i
.LVL394:
.LBB184:
	.loc 1 741 0
	movzbl	%cl, %ecx	# D.19528, D.19528
	.loc 1 742 0
	movl	%r8d, 16(%rsi)	# start_row, _40->start_row
	.loc 1 741 0
	addl	%eax, %ecx	# D.19529, this_rows
.LVL395:
	.loc 1 742 0
	movq	%r14, (%rsi)	# matrix_obj, _40->matrix_obj
	movq	%r12, 8(%rsi)	# result_obj, _40->result_obj
	.loc 1 749 0
	addl	%ecx, %r8d	# this_rows, start_row
.LVL396:
	.loc 1 742 0
	movl	%ecx, 20(%rsi)	# this_rows, _40->num_rows
.LBE184:
	.loc 1 739 0
	cmpl	$-1, %edi	#, i
	jne	.L216	#,
.LVL397:
	.p2align 4,,10
	.p2align 3
.L217:
.LBE185:
.LBB186:
	.loc 1 754 0
	movl	%r15d, %eax	# i, D.19527
	xorl	%esi, %esi	#
	leaq	(%rax,%rax,2), %rdx	#, D.19527
	leaq	(%rbx,%rdx,8), %rcx	#, D.19530
	movl	$clone_worker, %edx	#,
	leaq	0(%r13,%rax,8), %rdi	#, D.19531
	call	pthread_create	#
.LVL398:
	.loc 1 752 0
	testl	%r15d, %r15d	# i
	leal	-1(%r15), %r15d	#, i
.LVL399:
	jne	.L217	#,
.LBE186:
	.loc 1 757 0
	movl	8(%r14), %edx	# matrix_obj_14(D)->min, matrix_obj_14(D)->min
	movq	g_nthreads(%rip), %rax	# g_nthreads, g_nthreads
	movl	%edx, 8(%r12)	# matrix_obj_14(D)->min, result_obj_87->min
	.loc 1 758 0
	movl	12(%r14), %edx	# matrix_obj_14(D)->max, matrix_obj_14(D)->max
	leal	-1(%rax), %r15d	#, i
.LVL400:
	movl	%edx, 12(%r12)	# matrix_obj_14(D)->max, result_obj_87->max
	.loc 1 759 0
	movl	16(%r14), %edx	# matrix_obj_14(D)->sum, matrix_obj_14(D)->sum
	movl	%edx, 16(%r12)	# matrix_obj_14(D)->sum, result_obj_87->sum
	.loc 1 761 0
	movq	24(%r14), %rdx	# matrix_obj_14(D)->occurances, matrix_obj_14(D)->occurances
	movq	%rdx, 24(%r12)	# matrix_obj_14(D)->occurances, result_obj_87->occurances
.LVL401:
.LBB187:
	.loc 1 763 0
	testl	%eax, %eax	# g_nthreads
	je	.L220	#,
	.p2align 4,,10
	.p2align 3
.L221:
	.loc 1 765 0
	movl	%r15d, %eax	# i, D.19527
	xorl	%esi, %esi	#
	movq	0(%r13,%rax,8), %rdi	# *_67, *_67
	call	pthread_join	#
.LVL402:
	.loc 1 763 0
	testl	%r15d, %r15d	# i
	leal	-1(%r15), %r15d	#, i
.LVL403:
	jne	.L221	#,
.LVL404:
.L220:
.LBE187:
	.loc 1 768 0
	movq	%rbx, %rdi	# args,
	call	free	#
.LVL405:
	.loc 1 771 0
	leaq	-40(%rbp), %rsp	#,
.LVL406:
	.loc 1 770 0
	movq	%r12, %rax	# result_obj, D.19523
	.loc 1 771 0
	popq	%rbx	#
.LVL407:
	popq	%r12	#
.LVL408:
	popq	%r13	#
.LVL409:
	popq	%r14	#
.LVL410:
	popq	%r15	#
	popq	%rbp	#
	.cfi_remember_state
	.cfi_def_cfa 7, 8
.LVL411:
	ret
.LVL412:
	.p2align 4,,10
	.p2align 3
.L228:
	.cfi_restore_state
.LBB188:
.LBB189:
.LBB190:
.LBB191:
	.loc 1 182 0
	movl	$32, %edi	#,
.LVL413:
	call	malloc	#
.LVL414:
	movq	%rax, %r12	#, tmp157
.LVL415:
	.loc 1 183 0
	movq	g_elements(%rip), %rax	# g_elements, tmp228
.LVL416:
	leaq	0(,%rax,4), %rbx	#, D.19527
	movq	%rbx, %rdi	# D.19527,
	call	malloc	#
.LVL417:
.LBE191:
.LBE190:
	.loc 1 685 0
	movq	(%r14), %rsi	# matrix_obj_14(D)->data, matrix_obj_14(D)->data
	movq	%rbx, %rdx	# D.19527,
.LBB193:
.LBB192:
	.loc 1 183 0
	movq	%rax, (%r12)	# tmp159, result_obj_15->data
.LBE192:
.LBE193:
	.loc 1 685 0
	movq	%rax, %rdi	# tmp159,
	call	memcpy	#
.LVL418:
	.loc 1 687 0
	movl	8(%r14), %eax	# matrix_obj_14(D)->min, matrix_obj_14(D)->min
	movl	%eax, 8(%r12)	# matrix_obj_14(D)->min, result_obj_15->min
	.loc 1 688 0
	movl	12(%r14), %eax	# matrix_obj_14(D)->max, matrix_obj_14(D)->max
	movl	%eax, 12(%r12)	# matrix_obj_14(D)->max, result_obj_15->max
	.loc 1 689 0
	movl	16(%r14), %eax	# matrix_obj_14(D)->sum, matrix_obj_14(D)->sum
	movl	%eax, 16(%r12)	# matrix_obj_14(D)->sum, result_obj_15->sum
	.loc 1 691 0
	movq	24(%r14), %rax	# matrix_obj_14(D)->occurances, matrix_obj_14(D)->occurances
	movq	%rax, 24(%r12)	# matrix_obj_14(D)->occurances, result_obj_15->occurances
.LBE189:
.LBE188:
	.loc 1 771 0
	leaq	-40(%rbp), %rsp	#,
	.loc 1 730 0
	movq	%r12, %rax	# tmp157, D.19523
	.loc 1 771 0
	popq	%rbx	#
	popq	%r12	#
.LVL419:
	popq	%r13	#
	popq	%r14	#
.LVL420:
	popq	%r15	#
	popq	%rbp	#
	.cfi_remember_state
	.cfi_def_cfa 7, 8
	ret
.LVL421:
.L215:
	.cfi_restore_state
	.loc 1 757 0
	movl	8(%r14), %eax	# matrix_obj_14(D)->min, matrix_obj_14(D)->min
.LVL422:
	movl	%eax, 8(%r12)	# matrix_obj_14(D)->min, result_obj_87->min
	.loc 1 758 0
	movl	12(%r14), %eax	# matrix_obj_14(D)->max, matrix_obj_14(D)->max
	movl	%eax, 12(%r12)	# matrix_obj_14(D)->max, result_obj_87->max
	.loc 1 759 0
	movl	16(%r14), %eax	# matrix_obj_14(D)->sum, matrix_obj_14(D)->sum
	movl	%eax, 16(%r12)	# matrix_obj_14(D)->sum, result_obj_87->sum
	.loc 1 761 0
	movq	24(%r14), %rax	# matrix_obj_14(D)->occurances, matrix_obj_14(D)->occurances
	movq	%rax, 24(%r12)	# matrix_obj_14(D)->occurances, result_obj_87->occurances
.LVL423:
	jmp	.L220	#
	.cfi_endproc
.LFE2279:
	.size	cloned, .-cloned
	.section	.text.unlikely
.LCOLDE27:
	.text
.LHOTE27:
	.section	.text.unlikely
.LCOLDB28:
	.text
.LHOTB28:
	.p2align 4,,15
	.globl	reversed
	.type	reversed, @function
reversed:
.LFB2282:
	.loc 1 824 0
	.cfi_startproc
.LVL424:
	pushq	%rbp	#
	.cfi_def_cfa_offset 16
	.cfi_offset 6, -16
	movq	%rsp, %rbp	#,
	.cfi_def_cfa_register 6
	pushq	%r15	#
	pushq	%r14	#
	pushq	%r13	#
	pushq	%r12	#
	.cfi_offset 15, -24
	.cfi_offset 14, -32
	.cfi_offset 13, -40
	.cfi_offset 12, -48
	movq	%rdi, %r12	# matrix_obj, matrix_obj
	pushq	%rbx	#
	subq	$24, %rsp	#,
	.cfi_offset 3, -56
	.loc 1 825 0
	movq	g_nthreads(%rip), %rcx	# g_nthreads, D.19594
	cmpq	$1, %rcx	#, D.19594
	je	.L230	#,
	.loc 1 825 0 is_stmt 0 discriminator 1
	cmpq	$199, g_width(%rip)	#, g_width
	jg	.L231	#,
.L230:
.LVL425:
.LBB205:
.LBB206:
.LBB207:
.LBB208:
	.loc 1 182 0 is_stmt 1
	movl	$32, %edi	#,
.LVL426:
	call	malloc	#
.LVL427:
	.loc 1 183 0
	movq	g_elements(%rip), %r14	# g_elements, D.19594
	.loc 1 182 0
	movq	%rax, %r13	#, result_obj
.LVL428:
	.loc 1 183 0
	leaq	0(,%r14,4), %rbx	#, D.19596
	movq	%rbx, %rdi	# D.19596,
	call	malloc	#
.LVL429:
.LBE208:
.LBE207:
	.loc 1 782 0
	leaq	-4(%rbx), %rcx	#, D.19595
	addq	(%r12), %rcx	# matrix_obj_40(D)->data, matrix_cpy
.LBB210:
.LBB209:
	.loc 1 183 0
	movq	%rax, %rdx	#, result
	movq	%rax, 0(%r13)	# result, result_obj_71->data
.LVL430:
.LBE209:
.LBE210:
.LBB211:
	.loc 1 784 0
	leal	-1(%r14), %eax	#,
.LVL431:
	leaq	4(%rdx,%rax,4), %rax	#, D.19597
.LVL432:
	testl	%r14d, %r14d	# D.19594
	je	.L235	#,
.LVL433:
	.p2align 4,,10
	.p2align 3
.L234:
	.loc 1 786 0
	subq	$4, %rcx	#, matrix_cpy
.LVL434:
	movl	4(%rcx), %esi	# MEM[base: matrix_cpy_86, offset: 4B], D.19599
	addq	$4, %rdx	#, result
.LVL435:
	movl	%esi, -4(%rdx)	# D.19599, MEM[base: result_84, offset: -4B]
	.loc 1 784 0
	cmpq	%rax, %rdx	# D.19597, result
	jne	.L234	#,
.L235:
.LBE211:
	.loc 1 789 0
	movl	8(%r12), %eax	# matrix_obj_40(D)->min, matrix_obj_40(D)->min
	movl	%eax, 8(%r13)	# matrix_obj_40(D)->min, result_obj_71->min
	.loc 1 790 0
	movl	12(%r12), %eax	# matrix_obj_40(D)->max, matrix_obj_40(D)->max
	movl	%eax, 12(%r13)	# matrix_obj_40(D)->max, result_obj_71->max
	.loc 1 791 0
	movl	16(%r12), %eax	# matrix_obj_40(D)->sum, matrix_obj_40(D)->sum
	movl	%eax, 16(%r13)	# matrix_obj_40(D)->sum, result_obj_71->sum
	.loc 1 793 0
	movq	24(%r12), %rax	# matrix_obj_40(D)->occurances, matrix_obj_40(D)->occurances
	movq	%rax, 24(%r13)	# matrix_obj_40(D)->occurances, result_obj_71->occurances
.LBE206:
.LBE205:
	.loc 1 868 0
	leaq	-40(%rbp), %rsp	#,
	.loc 1 827 0
	movq	%r13, %rax	# result_obj, D.19592
	.loc 1 868 0
	popq	%rbx	#
	popq	%r12	#
.LVL436:
	popq	%r13	#
.LVL437:
	popq	%r14	#
	popq	%r15	#
	popq	%rbp	#
	.cfi_remember_state
	.cfi_def_cfa 7, 8
	ret
.LVL438:
	.p2align 4,,10
	.p2align 3
.L231:
	.cfi_restore_state
.LBB212:
.LBB213:
	.loc 1 182 0
	movl	$32, %edi	#,
.LVL439:
	movq	%rcx, -56(%rbp)	# D.19594, %sfp
	call	malloc	#
.LVL440:
	movq	%rax, %rbx	#, result_obj
.LVL441:
	.loc 1 183 0
	movq	g_elements(%rip), %rax	# g_elements, tmp228
.LVL442:
	leaq	0(,%rax,4), %rdi	#, D.19596
	call	malloc	#
.LVL443:
.LBE213:
.LBE212:
	.loc 1 832 0
	movq	-56(%rbp), %rcx	# %sfp, D.19594
.LBB215:
.LBB214:
	.loc 1 183 0
	movq	%rax, (%rbx)	# tmp177, result_obj_98->data
.LVL444:
.LBE214:
.LBE215:
	.loc 1 832 0
	leaq	22(,%rcx,8), %rax	#, tmp181
	.loc 1 834 0
	leaq	(%rcx,%rcx,2), %rdi	#, D.19596
	.loc 1 832 0
	andq	$-16, %rax	#, tmp185
	subq	%rax, %rsp	# tmp185,
	.loc 1 834 0
	salq	$3, %rdi	#, tmp193
	call	malloc	#
.LVL445:
.LBB216:
	.loc 1 836 0
	movq	-56(%rbp), %rcx	# %sfp, D.19594
.LBE216:
	.loc 1 832 0
	movq	%rsp, %r14	#, tmp189
.LVL446:
	.loc 1 834 0
	movq	%rax, %r13	#, args
.LVL447:
.LBB219:
	.loc 1 836 0
	leal	-1(%rcx), %r15d	#, i
.LVL448:
	testl	%ecx, %ecx	# D.19594
	je	.L236	#,
.LVL449:
	movq	g_height(%rip), %rax	# g_height, D.19602
.LVL450:
	movl	%r15d, %edi	# i, i
	xorl	%r8d, %r8d	# start_row
	cqto
	idivq	%rcx	# D.19594
.LVL451:
	.p2align 4,,10
	.p2align 3
.L237:
.LBB217:
	.loc 1 838 0
	movl	%edi, %esi	# i, D.19594
	movq	%rdx, %rcx	# tmp197, D.19594
	subq	%rsi, %rcx	# D.19594, D.19594
	.loc 1 839 0
	leaq	(%rsi,%rsi,2), %rsi	#, D.19596
	.loc 1 838 0
	testq	%rcx, %rcx	# D.19594
	.loc 1 839 0
	leaq	0(%r13,%rsi,8), %rsi	#, D.19600
	.loc 1 838 0
	setg	%cl	#, D.19598
.LBE217:
	.loc 1 836 0
	subl	$1, %edi	#, i
.LVL452:
.LBB218:
	.loc 1 838 0
	movzbl	%cl, %ecx	# D.19598, D.19598
	.loc 1 839 0
	movl	%r8d, 20(%rsi)	# start_row, _38->start_row
	.loc 1 838 0
	addl	%eax, %ecx	# D.19599, this_rows
.LVL453:
	.loc 1 839 0
	movq	%rbx, (%rsi)	# result_obj, _38->result_obj
	movq	%r12, 8(%rsi)	# matrix_obj, _38->matrix_obj
	.loc 1 846 0
	addl	%ecx, %r8d	# this_rows, start_row
.LVL454:
	.loc 1 839 0
	movl	%ecx, 16(%rsi)	# this_rows, _38->num_rows
.LBE218:
	.loc 1 836 0
	cmpl	$-1, %edi	#, i
	jne	.L237	#,
.LVL455:
	.p2align 4,,10
	.p2align 3
.L238:
.LBE219:
.LBB220:
	.loc 1 851 0
	movl	%r15d, %eax	# i, D.19596
	xorl	%esi, %esi	#
	leaq	(%rax,%rax,2), %rdx	#, D.19596
	leaq	0(%r13,%rdx,8), %rcx	#, D.19600
	movl	$reverse_worker, %edx	#,
	leaq	(%r14,%rax,8), %rdi	#, D.19601
	call	pthread_create	#
.LVL456:
	.loc 1 849 0
	testl	%r15d, %r15d	# i
	leal	-1(%r15), %r15d	#, i
.LVL457:
	jne	.L238	#,
	movq	g_nthreads(%rip), %rax	# g_nthreads, g_nthreads
	leal	-1(%rax), %r15d	#, i
.LVL458:
.LBE220:
.LBB221:
	.loc 1 854 0
	testl	%eax, %eax	# g_nthreads
	je	.L236	#,
	.p2align 4,,10
	.p2align 3
.L243:
	.loc 1 856 0
	movl	%r15d, %eax	# i, D.19596
	xorl	%esi, %esi	#
	movq	(%r14,%rax,8), %rdi	# *_58, *_58
	call	pthread_join	#
.LVL459:
	.loc 1 854 0
	testl	%r15d, %r15d	# i
	leal	-1(%r15), %r15d	#, i
.LVL460:
	jne	.L243	#,
.LVL461:
.L236:
.LBE221:
	.loc 1 859 0
	movl	8(%r12), %eax	# matrix_obj_40(D)->min, matrix_obj_40(D)->min
	.loc 1 865 0
	movq	%r13, %rdi	# args,
	.loc 1 859 0
	movl	%eax, 8(%rbx)	# matrix_obj_40(D)->min, result_obj_98->min
	.loc 1 860 0
	movl	12(%r12), %eax	# matrix_obj_40(D)->max, matrix_obj_40(D)->max
	movl	%eax, 12(%rbx)	# matrix_obj_40(D)->max, result_obj_98->max
	.loc 1 861 0
	movl	16(%r12), %eax	# matrix_obj_40(D)->sum, matrix_obj_40(D)->sum
	movl	%eax, 16(%rbx)	# matrix_obj_40(D)->sum, result_obj_98->sum
	.loc 1 863 0
	movq	24(%r12), %rax	# matrix_obj_40(D)->occurances, matrix_obj_40(D)->occurances
	movq	%rax, 24(%rbx)	# matrix_obj_40(D)->occurances, result_obj_98->occurances
	.loc 1 865 0
	call	free	#
.LVL462:
	.loc 1 868 0
	leaq	-40(%rbp), %rsp	#,
.LVL463:
	.loc 1 867 0
	movq	%rbx, %rax	# result_obj, D.19592
	.loc 1 868 0
	popq	%rbx	#
.LVL464:
	popq	%r12	#
.LVL465:
	popq	%r13	#
.LVL466:
	popq	%r14	#
.LVL467:
	popq	%r15	#
	popq	%rbp	#
	.cfi_def_cfa 7, 8
.LVL468:
	ret
	.cfi_endproc
.LFE2282:
	.size	reversed, .-reversed
	.section	.text.unlikely
.LCOLDE28:
	.text
.LHOTE28:
	.section	.text.unlikely
.LCOLDB29:
	.text
.LHOTB29:
	.p2align 4,,15
	.globl	transposed
	.type	transposed, @function
transposed:
.LFB2284:
	.loc 1 903 0
	.cfi_startproc
.LVL469:
	pushq	%rbp	#
	.cfi_def_cfa_offset 16
	.cfi_offset 6, -16
	movq	%rsp, %rbp	#,
	.cfi_def_cfa_register 6
	pushq	%r15	#
	pushq	%r14	#
	.cfi_offset 15, -24
	.cfi_offset 14, -32
	movq	%rdi, %r14	# matrix_obj, matrix_obj
	pushq	%r13	#
	pushq	%r12	#
	pushq	%rbx	#
	subq	$24, %rsp	#,
	.cfi_offset 13, -40
	.cfi_offset 12, -48
	.cfi_offset 3, -56
	.loc 1 904 0
	call	identity_matrix	#
.LVL470:
	.loc 1 905 0
	movq	g_elements(%rip), %rbx	# g_elements, tmp210
	movq	(%rax), %rsi	# identity_obj_14->data,
	movq	(%r14), %rdi	# matrix_obj_19(D)->data,
	salq	$2, %rbx	#, D.19636
	movq	%rbx, %rdx	# D.19636,
	call	memcmp	#
.LVL471:
	testl	%eax, %eax	# tmp152
	je	.L267	#,
.LBB228:
.LBB229:
	.loc 1 182 0
	movl	$32, %edi	#,
	call	malloc	#
.LVL472:
	.loc 1 183 0
	movq	%rbx, %rdi	# D.19636,
	.loc 1 182 0
	movq	%rax, %r13	#, result_obj
.LVL473:
	.loc 1 183 0
	call	malloc	#
.LVL474:
.LBE229:
.LBE228:
	.loc 1 911 0
	movq	g_nthreads(%rip), %rcx	# g_nthreads, D.19635
.LBB231:
.LBB230:
	.loc 1 183 0
	movq	%rax, 0(%r13)	# tmp155, result_obj_80->data
.LVL475:
.LBE230:
.LBE231:
	.loc 1 911 0
	leaq	22(,%rcx,8), %rax	#, tmp159
	.loc 1 913 0
	movq	%rcx, -56(%rbp)	# D.19635, %sfp
	leaq	(%rcx,%rcx,2), %rdi	#, D.19636
	.loc 1 911 0
	andq	$-16, %rax	#, tmp163
	subq	%rax, %rsp	# tmp163,
	.loc 1 913 0
	salq	$3, %rdi	#, tmp171
	call	malloc	#
.LVL476:
.LBB232:
	.loc 1 915 0
	movq	-56(%rbp), %rcx	# %sfp, D.19635
.LBE232:
	.loc 1 911 0
	movq	%rsp, %r12	#, tmp167
.LVL477:
	.loc 1 913 0
	movq	%rax, %rbx	#, args
.LVL478:
.LBB235:
	.loc 1 915 0
	leal	-1(%rcx), %r15d	#, i
.LVL479:
	testl	%ecx, %ecx	# D.19635
	je	.L254	#,
.LVL480:
	movq	g_height(%rip), %rax	# g_height, D.19644
.LVL481:
	movl	%r15d, %edi	# i, i
	xorl	%r8d, %r8d	# start_row
	cqto
	idivq	%rcx	# D.19635
.LVL482:
	.p2align 4,,10
	.p2align 3
.L255:
.LBB233:
	.loc 1 917 0
	movl	%edi, %esi	# i, D.19635
	movq	%rdx, %rcx	# tmp175, D.19635
	subq	%rsi, %rcx	# D.19635, D.19635
	.loc 1 918 0
	leaq	(%rsi,%rsi,2), %rsi	#, D.19636
	.loc 1 917 0
	testq	%rcx, %rcx	# D.19635
	.loc 1 918 0
	leaq	(%rbx,%rsi,8), %rsi	#, D.19642
	.loc 1 917 0
	setg	%cl	#, D.19640
.LBE233:
	.loc 1 915 0
	subl	$1, %edi	#, i
.LVL483:
.LBB234:
	.loc 1 917 0
	movzbl	%cl, %ecx	# D.19640, D.19640
	.loc 1 918 0
	movl	%r8d, 20(%rsi)	# start_row, _47->start_row
	.loc 1 917 0
	addl	%eax, %ecx	# D.19641, this_rows
.LVL484:
	.loc 1 918 0
	movq	%r14, (%rsi)	# matrix_obj, _47->matrix_obj
	movq	%r13, 8(%rsi)	# result_obj, _47->result_obj
	.loc 1 925 0
	addl	%ecx, %r8d	# this_rows, start_row
.LVL485:
	.loc 1 918 0
	movl	%ecx, 16(%rsi)	# this_rows, _47->num_rows
.LBE234:
	.loc 1 915 0
	cmpl	$-1, %edi	#, i
	jne	.L255	#,
.LVL486:
	.p2align 4,,10
	.p2align 3
.L256:
.LBE235:
.LBB236:
	.loc 1 930 0
	movl	%r15d, %eax	# i, D.19636
	xorl	%esi, %esi	#
	leaq	(%rax,%rax,2), %rdx	#, D.19636
	leaq	(%rbx,%rdx,8), %rcx	#, D.19642
	movl	$transpose_worker, %edx	#,
	leaq	(%r12,%rax,8), %rdi	#, D.19643
	call	pthread_create	#
.LVL487:
	.loc 1 928 0
	testl	%r15d, %r15d	# i
	leal	-1(%r15), %r15d	#, i
.LVL488:
	jne	.L256	#,
.LBE236:
	.loc 1 933 0
	movl	8(%r14), %edx	# matrix_obj_19(D)->min, matrix_obj_19(D)->min
	movq	g_nthreads(%rip), %rax	# g_nthreads, g_nthreads
	movl	%edx, 8(%r13)	# matrix_obj_19(D)->min, result_obj_80->min
	.loc 1 934 0
	movl	12(%r14), %edx	# matrix_obj_19(D)->max, matrix_obj_19(D)->max
	leal	-1(%rax), %r15d	#, i
.LVL489:
	movl	%edx, 12(%r13)	# matrix_obj_19(D)->max, result_obj_80->max
	.loc 1 935 0
	movl	16(%r14), %edx	# matrix_obj_19(D)->sum, matrix_obj_19(D)->sum
	movl	%edx, 16(%r13)	# matrix_obj_19(D)->sum, result_obj_80->sum
	.loc 1 937 0
	movq	24(%r14), %rdx	# matrix_obj_19(D)->occurances, matrix_obj_19(D)->occurances
	movq	%rdx, 24(%r13)	# matrix_obj_19(D)->occurances, result_obj_80->occurances
.LVL490:
.LBB237:
	.loc 1 939 0
	testl	%eax, %eax	# g_nthreads
	je	.L259	#,
	.p2align 4,,10
	.p2align 3
.L260:
	.loc 1 941 0
	movl	%r15d, %eax	# i, D.19636
	xorl	%esi, %esi	#
	movq	(%r12,%rax,8), %rdi	# *_74, *_74
	call	pthread_join	#
.LVL491:
	.loc 1 939 0
	testl	%r15d, %r15d	# i
	leal	-1(%r15), %r15d	#, i
.LVL492:
	jne	.L260	#,
.LVL493:
.L259:
.LBE237:
	.loc 1 944 0
	movq	%rbx, %rdi	# args,
	call	free	#
.LVL494:
	.loc 1 947 0
	leaq	-40(%rbp), %rsp	#,
.LVL495:
	.loc 1 946 0
	movq	%r13, %rax	# result_obj, D.19633
	.loc 1 947 0
	popq	%rbx	#
.LVL496:
	popq	%r12	#
.LVL497:
	popq	%r13	#
.LVL498:
	popq	%r14	#
.LVL499:
	popq	%r15	#
	popq	%rbp	#
	.cfi_remember_state
	.cfi_def_cfa 7, 8
.LVL500:
	ret
.LVL501:
	.p2align 4,,10
	.p2align 3
.L267:
	.cfi_restore_state
	.loc 1 907 0
	movq	%r14, %rdi	# matrix_obj,
	call	cloned	#
.LVL502:
	.loc 1 947 0
	leaq	-40(%rbp), %rsp	#,
	popq	%rbx	#
	popq	%r12	#
	popq	%r13	#
	popq	%r14	#
.LVL503:
	popq	%r15	#
	popq	%rbp	#
	.cfi_remember_state
	.cfi_def_cfa 7, 8
	ret
.LVL504:
.L254:
	.cfi_restore_state
	.loc 1 933 0
	movl	8(%r14), %eax	# matrix_obj_19(D)->min, matrix_obj_19(D)->min
.LVL505:
	movl	%eax, 8(%r13)	# matrix_obj_19(D)->min, result_obj_80->min
	.loc 1 934 0
	movl	12(%r14), %eax	# matrix_obj_19(D)->max, matrix_obj_19(D)->max
	movl	%eax, 12(%r13)	# matrix_obj_19(D)->max, result_obj_80->max
	.loc 1 935 0
	movl	16(%r14), %eax	# matrix_obj_19(D)->sum, matrix_obj_19(D)->sum
	movl	%eax, 16(%r13)	# matrix_obj_19(D)->sum, result_obj_80->sum
	.loc 1 937 0
	movq	24(%r14), %rax	# matrix_obj_19(D)->occurances, matrix_obj_19(D)->occurances
	movq	%rax, 24(%r13)	# matrix_obj_19(D)->occurances, result_obj_80->occurances
.LVL506:
	jmp	.L259	#
	.cfi_endproc
.LFE2284:
	.size	transposed, .-transposed
	.section	.text.unlikely
.LCOLDE29:
	.text
.LHOTE29:
	.section	.text.unlikely
.LCOLDB30:
	.text
.LHOTB30:
	.p2align 4,,15
	.globl	scalar_add
	.type	scalar_add, @function
scalar_add:
.LFB2287:
	.loc 1 1024 0
	.cfi_startproc
.LVL507:
	pushq	%rbp	#
	.cfi_def_cfa_offset 16
	.cfi_offset 6, -16
	movq	%rdi, %r11	# matrix_obj, matrix_obj
	movq	%rsp, %rbp	#,
	.cfi_def_cfa_register 6
	pushq	%r15	#
	pushq	%r14	#
	pushq	%r13	#
	pushq	%r12	#
	pushq	%rbx	#
	subq	$56, %rsp	#,
	.cfi_offset 15, -24
	.cfi_offset 14, -32
	.cfi_offset 13, -40
	.cfi_offset 12, -48
	.cfi_offset 3, -56
	.loc 1 1025 0
	movq	g_nthreads(%rip), %rcx	# g_nthreads, D.19716
	cmpq	$1, %rcx	#, D.19716
	je	.L269	#,
	.loc 1 1025 0 is_stmt 0 discriminator 1
	cmpq	$199, g_width(%rip)	#, g_width
	jg	.L270	#,
.L269:
.LBB249:
.LBB250:
.LBB251:
.LBB252:
	.loc 1 182 0 is_stmt 1
	movl	$32, %edi	#,
.LVL508:
	movq	%r11, -56(%rbp)	# matrix_obj, %sfp
.LVL509:
	movl	%esi, -64(%rbp)	# scalar, %sfp
.LVL510:
	call	malloc	#
.LVL511:
	.loc 1 183 0
	movq	g_elements(%rip), %r12	# g_elements, D.19716
	.loc 1 182 0
	movq	%rax, %rbx	#, result_obj
.LVL512:
	.loc 1 183 0
	leaq	0(,%r12,4), %rdi	#, D.19719
	call	malloc	#
.LVL513:
.LBE252:
.LBE251:
	.loc 1 957 0
	movq	-56(%rbp), %r11	# %sfp, matrix_obj
.LBB254:
	.loc 1 963 0
	leal	-1(%r12), %r10d	#,
.LBE254:
.LBB255:
.LBB253:
	.loc 1 183 0
	movq	%rax, (%rbx)	# result_cpy, result_obj_96->data
.LVL514:
.LBE253:
.LBE255:
	.loc 1 957 0
	movq	(%r11), %r11	# MEM[(uint32_t * *)matrix_obj_50(D)], matrix
.LVL515:
.LBB256:
	.loc 1 963 0
	testl	%r12d, %r12d	# D.19716
	je	.L279	#,
	movl	-64(%rbp), %esi	# %sfp, scalar
	addq	$1, %r10	#, D.19720
.LVL516:
	xorl	%ecx, %ecx	# ivtmp.663
	xorl	%r9d, %r9d	# sum
	xorl	%edi, %edi	# max
	movl	$-1, %r8d	#, max
.LVL517:
	.p2align 4,,10
	.p2align 3
.L272:
	.loc 1 965 0
	movl	(%r11,%rcx,4), %edx	# MEM[base: matrix_101, index: ivtmp.663_114, step: 4, offset: 0B], max
	addl	%esi, %edx	# scalar, max
	cmpl	%edx, %r8d	# max, max
	movl	%edx, (%rax,%rcx,4)	# max, MEM[base: result_cpy_121, index: ivtmp.663_114, step: 4, offset: 0B]
	cmova	%edx, %r8d	# max,, max, max
.LVL518:
	cmpl	%edx, %edi	# max, max
	cmovb	%edx, %edi	# max,, max, max
.LVL519:
	addq	$1, %rcx	#, ivtmp.663
.LVL520:
	.loc 1 968 0
	addl	%edx, %r9d	# max, sum
.LVL521:
	.loc 1 963 0
	cmpq	%r10, %rcx	# D.19720, ivtmp.663
	jne	.L272	#,
.LVL522:
.L271:
.LBE256:
	.loc 1 972 0
	movq	$0, 24(%rbx)	#, result_obj_96->occurances
.LBE250:
.LBE249:
	.loc 1 1027 0
	movq	%rbx, %rax	# result_obj, D.19714
.LBB259:
.LBB257:
	.loc 1 973 0
	movl	%r8d, 8(%rbx)	# max, result_obj_96->min
	.loc 1 974 0
	movl	%edi, 12(%rbx)	# max, result_obj_96->max
	.loc 1 975 0
	movl	%r9d, 16(%rbx)	# sum, result_obj_96->sum
.LBE257:
.LBE259:
	.loc 1 1082 0
	leaq	-40(%rbp), %rsp	#,
	popq	%rbx	#
.LVL523:
	popq	%r12	#
	popq	%r13	#
	popq	%r14	#
	popq	%r15	#
	popq	%rbp	#
	.cfi_remember_state
	.cfi_def_cfa 7, 8
.LVL524:
	ret
.LVL525:
	.p2align 4,,10
	.p2align 3
.L270:
	.cfi_restore_state
	movq	%rdi, -72(%rbp)	# matrix_obj, %sfp
.LBB260:
.LBB261:
	.loc 1 182 0
	movl	$32, %edi	#,
.LVL526:
	movl	%esi, -80(%rbp)	# scalar, %sfp
	movq	%rcx, -56(%rbp)	# D.19716, %sfp
	call	malloc	#
.LVL527:
	movq	%rax, %rbx	#, result_obj
.LVL528:
	.loc 1 183 0
	movq	g_elements(%rip), %rax	# g_elements, tmp270
.LVL529:
	leaq	0(,%rax,4), %rdi	#, D.19719
	call	malloc	#
.LVL530:
.LBE261:
.LBE260:
	.loc 1 1032 0
	movq	-56(%rbp), %rcx	# %sfp, D.19716
.LBB263:
.LBB262:
	.loc 1 183 0
	movq	%rbx, -88(%rbp)	# result_obj, %sfp
	movq	%rax, (%rbx)	# tmp182, result_obj_122->data
.LVL531:
.LBE262:
.LBE263:
	.loc 1 1032 0
	leaq	0(,%rcx,8), %rdx	#, D.19718
	leaq	22(%rdx), %rax	#, tmp186
	movq	%rdx, -64(%rbp)	# D.19718, %sfp
	.loc 1 1034 0
	leaq	0(,%rcx,4), %rbx	#, D.19719
.LVL532:
	.loc 1 1032 0
	andq	$-16, %rax	#, tmp190
	subq	%rax, %rsp	# tmp190,
	.loc 1 1034 0
	movq	%rbx, %rdi	# D.19719,
	call	malloc	#
.LVL533:
	.loc 1 1035 0
	movq	%rbx, %rdi	# D.19719,
	.loc 1 1032 0
	movq	%rsp, %r15	#, tmp194
.LVL534:
	.loc 1 1034 0
	movq	%rax, %r12	#, mins
.LVL535:
	.loc 1 1035 0
	call	malloc	#
.LVL536:
	.loc 1 1036 0
	movq	%rbx, %rdi	# D.19719,
	.loc 1 1035 0
	movq	%rax, %r13	#, maxes
.LVL537:
	.loc 1 1036 0
	call	malloc	#
.LVL538:
	.loc 1 1038 0
	movq	-56(%rbp), %rcx	# %sfp, D.19716
	movq	-64(%rbp), %rdx	# %sfp, D.19718
	.loc 1 1036 0
	movq	%rax, %r14	#, sums
.LVL539:
	.loc 1 1038 0
	movq	%rcx, %rdi	# D.19716, tmp200
	salq	$6, %rdi	#, tmp200
	subq	%rdx, %rdi	# D.19718, D.19719
	call	malloc	#
.LVL540:
.LBB264:
	.loc 1 1040 0
	movq	-56(%rbp), %rcx	# %sfp, D.19716
.LBE264:
	.loc 1 1038 0
	movq	%rax, %r11	#, args
	movq	%rax, -96(%rbp)	# args, %sfp
.LVL541:
.LBB267:
	.loc 1 1040 0
	leal	-1(%rcx), %ebx	#, i
.LVL542:
	testl	%ecx, %ecx	# D.19716
	je	.L280	#,
.LVL543:
	movq	g_height(%rip), %rax	# g_height, D.19717
.LVL544:
	movl	%ebx, %r8d	# i, i
	movl	%ebx, -64(%rbp)	# i, %sfp
	xorl	%edi, %edi	# start_row
	movl	-80(%rbp), %esi	# %sfp, scalar
	movq	%r11, %rbx	# args, args
.LVL545:
	movq	-88(%rbp), %r15	# %sfp, result_obj
	movq	-72(%rbp), %r11	# %sfp, matrix_obj
.LVL546:
	movq	%rsp, -72(%rbp)	# tmp194, %sfp
.LVL547:
	cqto
	idivq	%rcx	# D.19716
	movl	%eax, %r10d	# D.19716, D.19722
.LVL548:
	.p2align 4,,10
	.p2align 3
.L275:
.LBB265:
	.loc 1 1042 0
	movl	%r8d, %eax	# i, D.19716
	movq	%rdx, %rcx	# tmp205, D.19716
	.loc 1 1043 0
	leaq	0(,%rax,8), %r9	#, tmp214
	.loc 1 1042 0
	subq	%rax, %rcx	# D.19716, D.19716
	testq	%rcx, %rcx	# D.19716
	setg	%cl	#, D.19721
	.loc 1 1043 0
	salq	$6, %rax	#, tmp215
	subq	%r9, %rax	# tmp214, D.19719
	.loc 1 1042 0
	movzbl	%cl, %ecx	# D.19721, D.19721
	.loc 1 1043 0
	addq	%rbx, %rax	# args, D.19723
	.loc 1 1042 0
	addl	%r10d, %ecx	# D.19722, this_rows
.LVL549:
	.loc 1 1043 0
	movl	%r8d, 52(%rax)	# i, _49->id
.LBE265:
	.loc 1 1040 0
	subl	$1, %r8d	#, i
.LVL550:
.LBB266:
	.loc 1 1043 0
	movl	%edi, 48(%rax)	# start_row, _49->start_row
	.loc 1 1054 0
	addl	%ecx, %edi	# this_rows, start_row
.LVL551:
	.loc 1 1043 0
	movq	%r11, (%rax)	# matrix_obj, _49->matrix_obj
	movq	%r15, 8(%rax)	# result_obj, _49->result_obj
	movq	%r12, 16(%rax)	# mins, _49->mins
	movq	%r13, 24(%rax)	# maxes, _49->maxes
	movq	%r14, 32(%rax)	# sums, _49->sums
	movl	%esi, 40(%rax)	# scalar, _49->scalar
	movl	%ecx, 44(%rax)	# this_rows, _49->num_rows
.LBE266:
	.loc 1 1040 0
	cmpl	$-1, %r8d	#, i
	jne	.L275	#,
	movq	%r12, -56(%rbp)	# mins, %sfp
.LVL552:
	movq	-72(%rbp), %r15	# %sfp, tmp194
	movl	-64(%rbp), %r12d	# %sfp, i
.LVL553:
	.p2align 4,,10
	.p2align 3
.L276:
.LBE267:
.LBB268:
	.loc 1 1059 0
	movl	%r12d, %ecx	# i, D.19719
	xorl	%esi, %esi	#
	movl	$scalar_add_worker, %edx	#,
	leaq	0(,%rcx,8), %rdi	#, tmp218
	salq	$6, %rcx	#, tmp219
	subq	%rdi, %rcx	# tmp218, D.19719
	addq	%r15, %rdi	# tmp194, D.19724
	addq	%rbx, %rcx	# args, D.19723
	call	pthread_create	#
.LVL554:
	.loc 1 1057 0
	testl	%r12d, %r12d	# i
	leal	-1(%r12), %r12d	#, i
.LVL555:
	jne	.L276	#,
	movq	-56(%rbp), %r12	# %sfp, mins
.LVL556:
	movq	%rbx, -96(%rbp)	# args, %sfp
	movl	g_nthreads(%rip), %ecx	# g_nthreads, D.19726
.LVL557:
.L274:
.LBE268:
	.loc 1 1065 0
	movq	-88(%rbp), %rax	# %sfp, result_obj
	subl	$1, %ecx	#, ivtmp.682
	.loc 1 1062 0
	movl	$-1, %r9d	#, min
	.loc 1 1064 0
	xorl	%ebx, %ebx	# sum
	movq	%r13, -72(%rbp)	# maxes, %sfp
	movl	%ecx, %r13d	# ivtmp.682, ivtmp.682
.LVL558:
	movq	%r12, %rcx	# mins, mins
	movq	%r14, -80(%rbp)	# sums, %sfp
.LVL559:
	movl	%r9d, %r14d	# min, min
.LVL560:
	movq	%r15, %r9	# tmp194, tmp194
	movl	%ebx, %r15d	# sum, sum
	.loc 1 1065 0
	movq	$0, 24(%rax)	#, result_obj_122->occurances
.LBB269:
	.loc 1 1067 0
	jmp	.L277	#
.LVL561:
	.p2align 4,,10
	.p2align 3
.L278:
	.loc 1 1069 0
	movl	%r13d, %r12d	# ivtmp.682, D.19719
	xorl	%esi, %esi	#
	movq	%rcx, -64(%rbp)	# mins, %sfp
	movq	(%r9,%r12,8), %rdi	# *_77, *_77
	movq	%r9, -56(%rbp)	# tmp194, %sfp
	call	pthread_join	#
.LVL562:
	.loc 1 1070 0
	movq	-80(%rbp), %rax	# %sfp, sums
	.loc 1 1071 0
	movq	-64(%rbp), %rcx	# %sfp, mins
	movq	-56(%rbp), %r9	# %sfp, tmp194
	.loc 1 1070 0
	addl	(%rax,%r12,4), %r15d	# *_81, sum
.LVL563:
	.loc 1 1071 0
	movl	(%rcx,%r12,4), %eax	# *_84, min
	cmpl	%eax, %r14d	# min, min
	cmova	%eax, %r14d	# min,, min, min
.LVL564:
	.loc 1 1072 0
	movq	-72(%rbp), %rax	# %sfp, maxes
	movl	(%rax,%r12,4), %eax	# *_87, max
	cmpl	%eax, %ebx	# max, max
	cmovb	%eax, %ebx	# max,, max, max
.LVL565:
	subl	$1, %r13d	#, ivtmp.682
.LVL566:
.L277:
	.loc 1 1067 0 discriminator 1
	cmpl	$-1, %r13d	#, ivtmp.682
	jne	.L278	#,
	movl	%ebx, %r8d	# max, max
	movl	%r15d, %ebx	# sum, sum
.LVL567:
.LBE269:
	.loc 1 1075 0
	movq	-88(%rbp), %r15	# %sfp, result_obj
.LVL568:
	.loc 1 1079 0
	movq	-96(%rbp), %rdi	# %sfp,
	.loc 1 1075 0
	movq	%r15, %rax	# result_obj, result_obj
	movl	%r14d, 8(%rax)	# min, result_obj_122->min
	.loc 1 1077 0
	movl	%ebx, 16(%r15)	# sum, result_obj_122->sum
	.loc 1 1076 0
	movl	%r8d, 12(%r15)	# max, result_obj_122->max
	.loc 1 1079 0
	call	free	#
.LVL569:
	.loc 1 1082 0
	leaq	-40(%rbp), %rsp	#,
.LVL570:
	.loc 1 1081 0
	movq	%r15, %rax	# result_obj, D.19714
	.loc 1 1082 0
	popq	%rbx	#
.LVL571:
	popq	%r12	#
	popq	%r13	#
.LVL572:
	popq	%r14	#
.LVL573:
	popq	%r15	#
	popq	%rbp	#
	.cfi_remember_state
	.cfi_def_cfa 7, 8
	ret
.LVL574:
.L279:
	.cfi_restore_state
.LBB270:
.LBB258:
	.loc 1 961 0
	xorl	%r9d, %r9d	# sum
	.loc 1 960 0
	xorl	%edi, %edi	# max
	.loc 1 959 0
	movl	$-1, %r8d	#, max
	jmp	.L271	#
.LVL575:
.L280:
.LBE258:
.LBE270:
.LBB271:
	.loc 1 1040 0
	xorl	%ecx, %ecx	# D.19726
	jmp	.L274	#
.LBE271:
	.cfi_endproc
.LFE2287:
	.size	scalar_add, .-scalar_add
	.section	.text.unlikely
.LCOLDE30:
	.text
.LHOTE30:
	.section	.text.unlikely
.LCOLDB31:
	.text
.LHOTB31:
	.p2align 4,,15
	.globl	scalar_mul
	.type	scalar_mul, @function
scalar_mul:
.LFB2289:
	.loc 1 1131 0
	.cfi_startproc
.LVL576:
	pushq	%rbp	#
	.cfi_def_cfa_offset 16
	.cfi_offset 6, -16
	movq	%rsp, %rbp	#,
	.cfi_def_cfa_register 6
	pushq	%r15	#
	pushq	%r14	#
	pushq	%r13	#
	pushq	%r12	#
	pushq	%rbx	#
	subq	$56, %rsp	#,
	.cfi_offset 15, -24
	.cfi_offset 14, -32
	.cfi_offset 13, -40
	.cfi_offset 12, -48
	.cfi_offset 3, -56
	.loc 1 1131 0
	movq	%rdi, -80(%rbp)	# matrix_obj, %sfp
.LBB278:
.LBB279:
	.loc 1 182 0
	movl	$32, %edi	#,
.LVL577:
.LBE279:
.LBE278:
	.loc 1 1131 0
	movl	%esi, -72(%rbp)	# scalar, %sfp
.LBB282:
.LBB280:
	.loc 1 182 0
	call	malloc	#
.LVL578:
	movq	%rax, %rbx	#, result_obj
.LVL579:
	.loc 1 183 0
	movq	g_elements(%rip), %rax	# g_elements, tmp236
.LVL580:
	leaq	0(,%rax,4), %rdi	#, D.19770
	call	malloc	#
.LVL581:
.LBE280:
.LBE282:
	.loc 1 1134 0
	movq	g_nthreads(%rip), %rcx	# g_nthreads, D.19768
.LBB283:
.LBB281:
	.loc 1 183 0
	movq	%rbx, -88(%rbp)	# result_obj, %sfp
	movq	%rax, (%rbx)	# tmp158, result_obj_93->data
.LVL582:
.LBE281:
.LBE283:
	.loc 1 1134 0
	leaq	0(,%rcx,8), %rdx	#, D.19769
	.loc 1 1136 0
	movq	%rcx, -56(%rbp)	# D.19768, %sfp
	.loc 1 1134 0
	leaq	22(%rdx), %rax	#, tmp162
	movq	%rdx, -64(%rbp)	# D.19769, %sfp
	.loc 1 1136 0
	leaq	0(,%rcx,4), %rbx	#, D.19770
.LVL583:
	.loc 1 1134 0
	andq	$-16, %rax	#, tmp166
	subq	%rax, %rsp	# tmp166,
	.loc 1 1136 0
	movq	%rbx, %rdi	# D.19770,
	call	malloc	#
.LVL584:
	.loc 1 1137 0
	movq	%rbx, %rdi	# D.19770,
	.loc 1 1134 0
	movq	%rsp, %r15	#, tmp170
.LVL585:
	.loc 1 1136 0
	movq	%rax, %r12	#, mins
.LVL586:
	.loc 1 1137 0
	call	malloc	#
.LVL587:
	.loc 1 1138 0
	movq	%rbx, %rdi	# D.19770,
	.loc 1 1137 0
	movq	%rax, %r13	#, maxes
.LVL588:
	.loc 1 1138 0
	call	malloc	#
.LVL589:
	.loc 1 1140 0
	movq	-56(%rbp), %rcx	# %sfp, D.19768
	movq	-64(%rbp), %rdx	# %sfp, D.19769
	.loc 1 1138 0
	movq	%rax, %r14	#, sums
.LVL590:
	.loc 1 1140 0
	movq	%rcx, %rdi	# D.19768, tmp176
	salq	$6, %rdi	#, tmp176
	subq	%rdx, %rdi	# D.19769, D.19770
	call	malloc	#
.LVL591:
.LBB284:
	.loc 1 1142 0
	movq	-56(%rbp), %rcx	# %sfp, D.19768
.LBE284:
	.loc 1 1140 0
	movq	%rax, %rsi	#, args
	movq	%rax, -96(%rbp)	# args, %sfp
.LVL592:
.LBB287:
	.loc 1 1142 0
	leal	-1(%rcx), %ebx	#, i
.LVL593:
	testl	%ecx, %ecx	# D.19768
	je	.L295	#,
.LVL594:
	movq	g_height(%rip), %rax	# g_height, D.19776
.LVL595:
	movl	%ebx, %r8d	# i, i
	movl	%ebx, -64(%rbp)	# i, %sfp
	xorl	%edi, %edi	# start_row
	movq	-80(%rbp), %r11	# %sfp, matrix_obj
	movq	%rsi, %rbx	# args, args
.LVL596:
	movq	-88(%rbp), %r15	# %sfp, result_obj
	movl	-72(%rbp), %esi	# %sfp, scalar
.LVL597:
	movq	%rsp, -72(%rbp)	# tmp170, %sfp
.LVL598:
	cqto
	idivq	%rcx	# D.19768
	movl	%eax, %r10d	# D.19768, D.19772
.LVL599:
	.p2align 4,,10
	.p2align 3
.L291:
.LBB285:
	.loc 1 1144 0
	movl	%r8d, %eax	# i, D.19768
	movq	%rdx, %rcx	# tmp181, D.19768
	.loc 1 1145 0
	leaq	0(,%rax,8), %r9	#, tmp190
	.loc 1 1144 0
	subq	%rax, %rcx	# D.19768, D.19768
	testq	%rcx, %rcx	# D.19768
	setg	%cl	#, D.19771
	.loc 1 1145 0
	salq	$6, %rax	#, tmp191
	subq	%r9, %rax	# tmp190, D.19770
	.loc 1 1144 0
	movzbl	%cl, %ecx	# D.19771, D.19771
	.loc 1 1145 0
	addq	%rbx, %rax	# args, D.19773
	.loc 1 1144 0
	addl	%r10d, %ecx	# D.19772, this_rows
.LVL600:
	.loc 1 1145 0
	movl	%r8d, 52(%rax)	# i, _45->id
.LBE285:
	.loc 1 1142 0
	subl	$1, %r8d	#, i
.LVL601:
.LBB286:
	.loc 1 1145 0
	movl	%edi, 48(%rax)	# start_row, _45->start_row
	.loc 1 1156 0
	addl	%ecx, %edi	# this_rows, start_row
.LVL602:
	.loc 1 1145 0
	movq	%r11, (%rax)	# matrix_obj, _45->matrix_obj
	movq	%r15, 8(%rax)	# result_obj, _45->result_obj
	movq	%r12, 16(%rax)	# mins, _45->mins
	movq	%r13, 24(%rax)	# maxes, _45->maxes
	movq	%r14, 32(%rax)	# sums, _45->sums
	movl	%esi, 40(%rax)	# scalar, _45->scalar
	movl	%ecx, 44(%rax)	# this_rows, _45->num_rows
.LBE286:
	.loc 1 1142 0
	cmpl	$-1, %r8d	#, i
	jne	.L291	#,
	movq	%r12, -56(%rbp)	# mins, %sfp
.LVL603:
	movq	-72(%rbp), %r15	# %sfp, tmp170
	movl	-64(%rbp), %r12d	# %sfp, i
.LVL604:
	.p2align 4,,10
	.p2align 3
.L292:
.LBE287:
.LBB288:
	.loc 1 1161 0
	movl	%r12d, %ecx	# i, D.19770
	xorl	%esi, %esi	#
	movl	$scalar_mul_worker, %edx	#,
	leaq	0(,%rcx,8), %rdi	#, tmp194
	salq	$6, %rcx	#, tmp195
	subq	%rdi, %rcx	# tmp194, D.19770
	addq	%r15, %rdi	# tmp170, D.19774
	addq	%rbx, %rcx	# args, D.19773
	call	pthread_create	#
.LVL605:
	.loc 1 1159 0
	testl	%r12d, %r12d	# i
	leal	-1(%r12), %r12d	#, i
.LVL606:
	jne	.L292	#,
	movq	-56(%rbp), %r12	# %sfp, mins
.LVL607:
	movq	%rbx, -96(%rbp)	# args, %sfp
	movl	g_nthreads(%rip), %ecx	# g_nthreads, D.19777
.LVL608:
.L290:
.LBE288:
	.loc 1 1168 0
	movq	-88(%rbp), %rax	# %sfp, result_obj
	subl	$1, %ecx	#, ivtmp.706
	.loc 1 1164 0
	movl	$-1, %r9d	#, min
	.loc 1 1166 0
	xorl	%ebx, %ebx	# sum
	movq	%r13, -72(%rbp)	# maxes, %sfp
	movl	%ecx, %r13d	# ivtmp.706, ivtmp.706
.LVL609:
	movq	%r12, %rcx	# mins, mins
	movq	%r14, -80(%rbp)	# sums, %sfp
.LVL610:
	movl	%r9d, %r14d	# min, min
.LVL611:
	movq	%r15, %r9	# tmp170, tmp170
	movl	%ebx, %r15d	# sum, sum
	.loc 1 1168 0
	movq	$0, 24(%rax)	#, result_obj_93->occurances
.LBB289:
	.loc 1 1170 0
	jmp	.L293	#
.LVL612:
	.p2align 4,,10
	.p2align 3
.L294:
	.loc 1 1172 0
	movl	%r13d, %r12d	# ivtmp.706, D.19770
	xorl	%esi, %esi	#
	movq	%rcx, -64(%rbp)	# mins, %sfp
	movq	(%r9,%r12,8), %rdi	# *_73, *_73
	movq	%r9, -56(%rbp)	# tmp170, %sfp
	call	pthread_join	#
.LVL613:
	.loc 1 1173 0
	movq	-80(%rbp), %rax	# %sfp, sums
	.loc 1 1174 0
	movq	-64(%rbp), %rcx	# %sfp, mins
	movq	-56(%rbp), %r9	# %sfp, tmp170
	.loc 1 1173 0
	addl	(%rax,%r12,4), %r15d	# *_77, sum
.LVL614:
	.loc 1 1174 0
	movl	(%rcx,%r12,4), %eax	# *_80, min
	cmpl	%eax, %r14d	# min, min
	cmova	%eax, %r14d	# min,, min, min
.LVL615:
	.loc 1 1175 0
	movq	-72(%rbp), %rax	# %sfp, maxes
	movl	(%rax,%r12,4), %eax	# *_82, max
	cmpl	%eax, %ebx	# max, max
	cmovb	%eax, %ebx	# max,, max, max
.LVL616:
	subl	$1, %r13d	#, ivtmp.706
.LVL617:
.L293:
	.loc 1 1170 0 discriminator 1
	cmpl	$-1, %r13d	#, ivtmp.706
	jne	.L294	#,
	movl	%ebx, %r8d	# max, max
	movl	%r15d, %ebx	# sum, sum
.LVL618:
.LBE289:
	.loc 1 1178 0
	movq	-88(%rbp), %r15	# %sfp, result_obj
.LVL619:
	.loc 1 1182 0
	movq	-96(%rbp), %rdi	# %sfp,
	.loc 1 1178 0
	movq	%r15, %rax	# result_obj, result_obj
	movl	%r14d, 8(%rax)	# min, result_obj_93->min
	.loc 1 1180 0
	movl	%ebx, 16(%r15)	# sum, result_obj_93->sum
	.loc 1 1179 0
	movl	%r8d, 12(%r15)	# max, result_obj_93->max
	.loc 1 1182 0
	call	free	#
.LVL620:
	.loc 1 1185 0
	leaq	-40(%rbp), %rsp	#,
.LVL621:
	movq	%r15, %rax	# result_obj,
	popq	%rbx	#
.LVL622:
	popq	%r12	#
	popq	%r13	#
.LVL623:
	popq	%r14	#
.LVL624:
	popq	%r15	#
	popq	%rbp	#
	.cfi_remember_state
	.cfi_def_cfa 7, 8
.LVL625:
	ret
.LVL626:
.L295:
	.cfi_restore_state
.LBB290:
	.loc 1 1142 0
	xorl	%ecx, %ecx	# D.19777
	jmp	.L290	#
.LBE290:
	.cfi_endproc
.LFE2289:
	.size	scalar_mul, .-scalar_mul
	.section	.text.unlikely
.LCOLDE31:
	.text
.LHOTE31:
	.section	.text.unlikely
.LCOLDB32:
	.text
.LHOTB32:
	.p2align 4,,15
	.globl	matrix_add
	.type	matrix_add, @function
matrix_add:
.LFB2291:
	.loc 1 1235 0
	.cfi_startproc
.LVL627:
	pushq	%rbp	#
	.cfi_def_cfa_offset 16
	.cfi_offset 6, -16
	movq	%rsp, %rbp	#,
	.cfi_def_cfa_register 6
	pushq	%r15	#
	pushq	%r14	#
	pushq	%r13	#
	pushq	%r12	#
	pushq	%rbx	#
	subq	$56, %rsp	#,
	.cfi_offset 15, -24
	.cfi_offset 14, -32
	.cfi_offset 13, -40
	.cfi_offset 12, -48
	.cfi_offset 3, -56
	.loc 1 1235 0
	movq	%rdi, -80(%rbp)	# matrix_a_obj, %sfp
.LBB297:
.LBB298:
	.loc 1 182 0
	movl	$32, %edi	#,
.LVL628:
.LBE298:
.LBE297:
	.loc 1 1235 0
	movq	%rsi, -72(%rbp)	# matrix_b_obj, %sfp
.LBB301:
.LBB299:
	.loc 1 182 0
	call	malloc	#
.LVL629:
	movq	%rax, %rbx	#, result_obj
	movq	%rax, -96(%rbp)	# result_obj, %sfp
.LVL630:
	.loc 1 183 0
	movq	g_elements(%rip), %rax	# g_elements, tmp200
.LVL631:
	leaq	0(,%rax,4), %rdi	#, D.19821
	call	malloc	#
.LVL632:
.LBE299:
.LBE301:
	.loc 1 1238 0
	movq	g_nthreads(%rip), %rcx	# g_nthreads, D.19819
.LBB302:
.LBB300:
	.loc 1 183 0
	movq	%rax, (%rbx)	# tmp158, result_obj_93->data
.LVL633:
.LBE300:
.LBE302:
	.loc 1 1238 0
	leaq	22(,%rcx,8), %rax	#, tmp162
	.loc 1 1240 0
	movq	%rcx, -56(%rbp)	# D.19819, %sfp
	leaq	0(,%rcx,4), %rbx	#, D.19821
.LVL634:
	.loc 1 1238 0
	andq	$-16, %rax	#, tmp166
	subq	%rax, %rsp	# tmp166,
	.loc 1 1240 0
	movq	%rbx, %rdi	# D.19821,
	call	malloc	#
.LVL635:
	.loc 1 1241 0
	movq	%rbx, %rdi	# D.19821,
	.loc 1 1238 0
	movq	%rsp, %r15	#, tmp170
.LVL636:
	.loc 1 1240 0
	movq	%rax, %r12	#, mins
.LVL637:
	.loc 1 1241 0
	call	malloc	#
.LVL638:
	.loc 1 1242 0
	movq	%rbx, %rdi	# D.19821,
	.loc 1 1241 0
	movq	%rax, %r13	#, maxes
.LVL639:
	.loc 1 1242 0
	call	malloc	#
.LVL640:
	.loc 1 1244 0
	movq	-56(%rbp), %rcx	# %sfp, D.19819
	.loc 1 1242 0
	movq	%rax, %r14	#, sums
.LVL641:
	.loc 1 1244 0
	movq	%rcx, %rdi	# D.19819, D.19821
	movq	%rcx, -64(%rbp)	# D.19819, %sfp
	salq	$6, %rdi	#, D.19821
	call	malloc	#
.LVL642:
.LBB303:
	.loc 1 1246 0
	movq	-64(%rbp), %rcx	# %sfp, D.19819
.LBE303:
	.loc 1 1244 0
	movq	%rax, -56(%rbp)	#, %sfp
.LVL643:
.LBB306:
	.loc 1 1246 0
	leal	-1(%rcx), %ebx	#, i
.LVL644:
	testl	%ecx, %ecx	# D.19819
	je	.L305	#,
.LVL645:
	movq	g_height(%rip), %rax	# g_height, D.19827
.LVL646:
	movl	%ebx, %r8d	# i, i
	xorl	%edi, %edi	# start_row
	movq	-80(%rbp), %r11	# %sfp, matrix_a_obj
	movq	-72(%rbp), %rsi	# %sfp, matrix_b_obj
	cqto
	idivq	%rcx	# D.19819
.LVL647:
	.p2align 4,,10
	.p2align 3
.L301:
.LBB304:
	.loc 1 1248 0
	movl	%r8d, %ecx	# i, D.19819
	movq	%rdx, %r9	# tmp178, D.19819
	.loc 1 1249 0
	movq	-96(%rbp), %r10	# %sfp, result_obj
	.loc 1 1248 0
	subq	%rcx, %r9	# D.19819, D.19819
	testq	%r9, %r9	# D.19819
	setg	%r9b	#, D.19822
	.loc 1 1249 0
	salq	$6, %rcx	#, D.19821
	addq	-56(%rbp), %rcx	# %sfp, D.19824
	.loc 1 1248 0
	movzbl	%r9b, %r9d	# D.19822, D.19822
	addl	%eax, %r9d	# D.19823, this_rows
.LVL648:
	.loc 1 1249 0
	movl	%r8d, 56(%rcx)	# i, _45->id
.LBE304:
	.loc 1 1246 0
	subl	$1, %r8d	#, i
.LVL649:
.LBB305:
	.loc 1 1249 0
	movl	%edi, 52(%rcx)	# start_row, _45->start_row
	.loc 1 1261 0
	addl	%r9d, %edi	# this_rows, start_row
.LVL650:
	.loc 1 1249 0
	movq	%r11, (%rcx)	# matrix_a_obj, _45->matrix_a_obj
	movq	%rsi, 8(%rcx)	# matrix_b_obj, _45->matrix_b_obj
	movq	%r10, 16(%rcx)	# result_obj, _45->result_obj
	movq	%r12, 24(%rcx)	# mins, _45->mins
	movq	%r13, 32(%rcx)	# maxes, _45->maxes
	movq	%r14, 40(%rcx)	# sums, _45->sums
	movl	%r9d, 48(%rcx)	# this_rows, _45->num_rows
.LBE305:
	.loc 1 1246 0
	cmpl	$-1, %r8d	#, i
	jne	.L301	#,
.LVL651:
	.p2align 4,,10
	.p2align 3
.L302:
.LBE306:
.LBB307:
	.loc 1 1266 0
	movl	%ebx, %eax	# i, D.19821
	xorl	%esi, %esi	#
	movl	$matrix_add_worker, %edx	#,
	leaq	(%r15,%rax,8), %rdi	#, D.19825
	movq	%rax, %rcx	# D.19821, D.19821
	salq	$6, %rcx	#, D.19821
	addq	-56(%rbp), %rcx	# %sfp, D.19824
	call	pthread_create	#
.LVL652:
	.loc 1 1264 0
	testl	%ebx, %ebx	# i
	leal	-1(%rbx), %ebx	#, i
.LVL653:
	jne	.L302	#,
	movl	g_nthreads(%rip), %ecx	# g_nthreads, D.19828
.LVL654:
.L300:
.LBE307:
	.loc 1 1273 0
	movq	-96(%rbp), %rax	# %sfp, result_obj
	subl	$1, %ecx	#, ivtmp.730
	.loc 1 1271 0
	xorl	%ebx, %ebx	# sum
	.loc 1 1270 0
	xorl	%r8d, %r8d	# max
	.loc 1 1269 0
	movl	$-1, %r9d	#, min
	.loc 1 1273 0
	movq	$0, 24(%rax)	#, result_obj_93->occurances
.LBB308:
	.loc 1 1275 0
	jmp	.L303	#
.LVL655:
	.p2align 4,,10
	.p2align 3
.L304:
	.loc 1 1277 0
	movl	%ecx, %edx	# ivtmp.730, D.19821
	xorl	%esi, %esi	#
	movl	%r8d, -84(%rbp)	# max, %sfp
	movq	(%r15,%rdx,8), %rdi	# *_73, *_73
	movl	%r9d, -80(%rbp)	# min, %sfp
	movl	%ecx, -72(%rbp)	# ivtmp.730, %sfp
	movq	%rdx, -64(%rbp)	# D.19821, %sfp
	call	pthread_join	#
.LVL656:
	.loc 1 1278 0
	movq	-64(%rbp), %rdx	# %sfp, D.19821
	movl	-80(%rbp), %r9d	# %sfp, min
	movl	-84(%rbp), %r8d	# %sfp, max
	movl	-72(%rbp), %ecx	# %sfp, ivtmp.730
	.loc 1 1279 0
	movl	(%r12,%rdx,4), %eax	# *_80, min
	.loc 1 1278 0
	addl	(%r14,%rdx,4), %ebx	# *_77, sum
.LVL657:
	cmpl	%eax, %r9d	# min, min
	cmova	%eax, %r9d	# min,, min, min
.LVL658:
	.loc 1 1280 0
	movl	0(%r13,%rdx,4), %eax	# *_82, max
	cmpl	%eax, %r8d	# max, max
	cmovb	%eax, %r8d	# max,, max, max
	subl	$1, %ecx	#, ivtmp.730
.LVL659:
.L303:
	.loc 1 1275 0 discriminator 1
	cmpl	$-1, %ecx	#, ivtmp.730
	jne	.L304	#,
.LBE308:
	.loc 1 1283 0
	movq	-96(%rbp), %r14	# %sfp, result_obj
.LVL660:
	.loc 1 1287 0
	movq	-56(%rbp), %rdi	# %sfp,
	.loc 1 1285 0
	movl	%ebx, 16(%r14)	# sum, result_obj_93->sum
	.loc 1 1283 0
	movl	%r9d, 8(%r14)	# min, result_obj_93->min
	.loc 1 1284 0
	movl	%r8d, 12(%r14)	# max, result_obj_93->max
	.loc 1 1287 0
	call	free	#
.LVL661:
	.loc 1 1290 0
	leaq	-40(%rbp), %rsp	#,
.LVL662:
	movq	%r14, %rax	# result_obj,
	popq	%rbx	#
.LVL663:
	popq	%r12	#
.LVL664:
	popq	%r13	#
.LVL665:
	popq	%r14	#
	popq	%r15	#
.LVL666:
	popq	%rbp	#
	.cfi_remember_state
	.cfi_def_cfa 7, 8
.LVL667:
	ret
.LVL668:
.L305:
	.cfi_restore_state
.LBB309:
	.loc 1 1246 0
	xorl	%ecx, %ecx	# D.19828
	jmp	.L300	#
.LBE309:
	.cfi_endproc
.LFE2291:
	.size	matrix_add, .-matrix_add
	.section	.text.unlikely
.LCOLDE32:
	.text
.LHOTE32:
	.section	.text.unlikely
.LCOLDB33:
	.text
.LHOTB33:
	.p2align 4,,15
	.globl	matrix_mul
	.type	matrix_mul, @function
matrix_mul:
.LFB2293:
	.loc 1 1357 0
	.cfi_startproc
.LVL669:
	pushq	%rbp	#
	.cfi_def_cfa_offset 16
	.cfi_offset 6, -16
	movq	%rsp, %rbp	#,
	.cfi_def_cfa_register 6
	pushq	%r15	#
	pushq	%r14	#
	pushq	%r13	#
	pushq	%r12	#
	pushq	%rbx	#
	.cfi_offset 15, -24
	.cfi_offset 14, -32
	.cfi_offset 13, -40
	.cfi_offset 12, -48
	.cfi_offset 3, -56
	movq	%rsi, %rbx	# matrix_b_obj, matrix_b_obj
	subq	$56, %rsp	#,
	.loc 1 1357 0
	movq	%rdi, -80(%rbp)	# matrix_a_obj, %sfp
.LBB316:
.LBB317:
	.loc 1 182 0
	movl	$32, %edi	#,
.LVL670:
	call	malloc	#
.LVL671:
	movq	%rax, %r15	#, result_obj
	movq	%rax, -96(%rbp)	# result_obj, %sfp
.LVL672:
	.loc 1 183 0
	movq	g_elements(%rip), %rax	# g_elements, tmp201
.LVL673:
	leaq	0(,%rax,4), %rdi	#, D.19871
	call	malloc	#
.LVL674:
.LBE317:
.LBE316:
	.loc 1 1359 0
	movq	%rbx, %rdi	# matrix_b_obj,
.LBB319:
.LBB318:
	.loc 1 183 0
	movq	%rax, (%r15)	# tmp159, result_obj_95->data
.LBE318:
.LBE319:
	.loc 1 1359 0
	call	transposed	#
.LVL675:
	.loc 1 1361 0
	movq	g_nthreads(%rip), %rcx	# g_nthreads, D.19870
	.loc 1 1359 0
	movq	%rax, -72(%rbp)	# matrix_b_t_obj, %sfp
.LVL676:
	.loc 1 1361 0
	leaq	0(,%rcx,4), %rbx	#, D.19871
.LVL677:
	movq	%rcx, -56(%rbp)	# D.19870, %sfp
	movq	%rbx, %rdi	# D.19871,
	call	malloc	#
.LVL678:
	.loc 1 1362 0
	movq	%rbx, %rdi	# D.19871,
	.loc 1 1361 0
	movq	%rax, %r12	#, mins
.LVL679:
	.loc 1 1362 0
	call	malloc	#
.LVL680:
	.loc 1 1363 0
	movq	%rbx, %rdi	# D.19871,
	.loc 1 1362 0
	movq	%rax, %r13	#, maxes
.LVL681:
	.loc 1 1363 0
	call	malloc	#
.LVL682:
	.loc 1 1365 0
	movq	-56(%rbp), %rcx	# %sfp, D.19870
	.loc 1 1363 0
	movq	%rax, %r14	#, sums
.LVL683:
	.loc 1 1365 0
	leaq	22(,%rcx,8), %rax	#, tmp166
.LVL684:
	.loc 1 1367 0
	movq	%rcx, %rdi	# D.19870, D.19871
	movq	%rcx, -64(%rbp)	# D.19870, %sfp
	.loc 1 1365 0
	andq	$-16, %rax	#, tmp170
	.loc 1 1367 0
	salq	$6, %rdi	#, D.19871
	.loc 1 1365 0
	subq	%rax, %rsp	# tmp170,
	.loc 1 1367 0
	call	malloc	#
.LVL685:
.LBB320:
	.loc 1 1369 0
	movq	-64(%rbp), %rcx	# %sfp, D.19870
.LBE320:
	.loc 1 1365 0
	movq	%rsp, %r15	#, tmp174
.LVL686:
	.loc 1 1367 0
	movq	%rax, -56(%rbp)	#, %sfp
.LVL687:
.LBB323:
	.loc 1 1369 0
	leal	-1(%rcx), %ebx	#, i
.LVL688:
	testl	%ecx, %ecx	# D.19870
	je	.L315	#,
.LVL689:
	movq	g_height(%rip), %rax	# g_height, D.19878
.LVL690:
	movl	%ebx, %esi	# i, i
	xorl	%edi, %edi	# start_row
	movq	-80(%rbp), %r10	# %sfp, matrix_a_obj
	movq	-72(%rbp), %r11	# %sfp, matrix_b_t_obj
	cqto
	idivq	%rcx	# D.19870
.LVL691:
	.p2align 4,,10
	.p2align 3
.L311:
.LBB321:
	.loc 1 1371 0
	movl	%esi, %ecx	# i, D.19870
	movq	%rdx, %r8	# tmp179, D.19870
	.loc 1 1372 0
	movq	-96(%rbp), %r9	# %sfp, result_obj
	.loc 1 1371 0
	subq	%rcx, %r8	# D.19870, D.19870
	testq	%r8, %r8	# D.19870
	setg	%r8b	#, D.19873
	.loc 1 1372 0
	salq	$6, %rcx	#, D.19871
	addq	-56(%rbp), %rcx	# %sfp, D.19875
	.loc 1 1371 0
	movzbl	%r8b, %r8d	# D.19873, D.19873
	addl	%eax, %r8d	# D.19874, this_rows
.LVL692:
	.loc 1 1372 0
	movl	%esi, 56(%rcx)	# i, _48->id
.LBE321:
	.loc 1 1369 0
	subl	$1, %esi	#, i
.LVL693:
.LBB322:
	.loc 1 1372 0
	movl	%edi, 52(%rcx)	# start_row, _48->start_row
	.loc 1 1383 0
	addl	%r8d, %edi	# this_rows, start_row
.LVL694:
	.loc 1 1372 0
	movq	%r10, (%rcx)	# matrix_a_obj, _48->matrix_a_obj
	movq	%r11, 8(%rcx)	# matrix_b_t_obj, _48->matrix_b_obj
	movq	%r9, 16(%rcx)	# result_obj, _48->result_obj
	movq	%r12, 24(%rcx)	# mins, _48->mins
	movq	%r13, 32(%rcx)	# maxes, _48->maxes
	movq	%r14, 40(%rcx)	# sums, _48->sums
	movl	%r8d, 48(%rcx)	# this_rows, _48->num_rows
.LBE322:
	.loc 1 1369 0
	cmpl	$-1, %esi	#, i
	jne	.L311	#,
.LVL695:
	.p2align 4,,10
	.p2align 3
.L312:
.LBE323:
.LBB324:
	.loc 1 1388 0
	movl	%ebx, %eax	# i, D.19871
	xorl	%esi, %esi	#
	movl	$matrix_mul_worker, %edx	#,
	leaq	(%r15,%rax,8), %rdi	#, D.19876
	movq	%rax, %rcx	# D.19871, D.19871
	salq	$6, %rcx	#, D.19871
	addq	-56(%rbp), %rcx	# %sfp, D.19875
	call	pthread_create	#
.LVL696:
	.loc 1 1386 0
	testl	%ebx, %ebx	# i
	leal	-1(%rbx), %ebx	#, i
.LVL697:
	jne	.L312	#,
	movl	g_nthreads(%rip), %ecx	# g_nthreads, D.19879
.LVL698:
.L310:
.LBE324:
	.loc 1 1395 0
	movq	-96(%rbp), %rax	# %sfp, result_obj
	subl	$1, %ecx	#, ivtmp.754
	.loc 1 1393 0
	xorl	%ebx, %ebx	# sum
	.loc 1 1392 0
	xorl	%r8d, %r8d	# max
	.loc 1 1391 0
	movl	$-1, %r9d	#, min
	.loc 1 1395 0
	movq	$0, 24(%rax)	#, result_obj_95->occurances
.LBB325:
	.loc 1 1397 0
	jmp	.L313	#
.LVL699:
	.p2align 4,,10
	.p2align 3
.L314:
	.loc 1 1399 0
	movl	%ecx, %edx	# ivtmp.754, D.19871
	xorl	%esi, %esi	#
	movl	%r8d, -84(%rbp)	# max, %sfp
	movq	(%r15,%rdx,8), %rdi	# *_75, *_75
	movl	%r9d, -80(%rbp)	# min, %sfp
	movl	%ecx, -72(%rbp)	# ivtmp.754, %sfp
	movq	%rdx, -64(%rbp)	# D.19871, %sfp
	call	pthread_join	#
.LVL700:
	.loc 1 1400 0
	movq	-64(%rbp), %rdx	# %sfp, D.19871
	movl	-80(%rbp), %r9d	# %sfp, min
	movl	-84(%rbp), %r8d	# %sfp, max
	movl	-72(%rbp), %ecx	# %sfp, ivtmp.754
	.loc 1 1401 0
	movl	(%r12,%rdx,4), %eax	# *_82, min
	.loc 1 1400 0
	addl	(%r14,%rdx,4), %ebx	# *_79, sum
.LVL701:
	cmpl	%eax, %r9d	# min, min
	cmova	%eax, %r9d	# min,, min, min
.LVL702:
	.loc 1 1402 0
	movl	0(%r13,%rdx,4), %eax	# *_84, max
	cmpl	%eax, %r8d	# max, max
	cmovb	%eax, %r8d	# max,, max, max
	subl	$1, %ecx	#, ivtmp.754
.LVL703:
.L313:
	.loc 1 1397 0 discriminator 1
	cmpl	$-1, %ecx	#, ivtmp.754
	jne	.L314	#,
.LBE325:
	.loc 1 1405 0
	movq	-96(%rbp), %r14	# %sfp, result_obj
.LVL704:
	.loc 1 1409 0
	movq	-56(%rbp), %rdi	# %sfp,
	.loc 1 1407 0
	movl	%ebx, 16(%r14)	# sum, result_obj_95->sum
	.loc 1 1405 0
	movl	%r9d, 8(%r14)	# min, result_obj_95->min
	.loc 1 1406 0
	movl	%r8d, 12(%r14)	# max, result_obj_95->max
	.loc 1 1409 0
	call	free	#
.LVL705:
	.loc 1 1413 0
	leaq	-40(%rbp), %rsp	#,
.LVL706:
	movq	%r14, %rax	# result_obj,
	popq	%rbx	#
.LVL707:
	popq	%r12	#
.LVL708:
	popq	%r13	#
.LVL709:
	popq	%r14	#
	popq	%r15	#
.LVL710:
	popq	%rbp	#
	.cfi_remember_state
	.cfi_def_cfa 7, 8
.LVL711:
	ret
.LVL712:
.L315:
	.cfi_restore_state
.LBB326:
	.loc 1 1369 0
	xorl	%ecx, %ecx	# D.19879
	jmp	.L310	#
.LBE326:
	.cfi_endproc
.LFE2293:
	.size	matrix_mul, .-matrix_mul
	.section	.text.unlikely
.LCOLDE33:
	.text
.LHOTE33:
	.section	.text.unlikely
.LCOLDB34:
	.text
.LHOTB34:
	.p2align 4,,15
	.type	m_pow, @function
m_pow:
.LFB2296:
	.loc 1 1447 0
	.cfi_startproc
.LVL713:
	movq	%rdi, %rax	# matrix_obj, D.19908
	.loc 1 1448 0
	cmpl	$1, %esi	#, exponent
	je	.L337	#,
	.loc 1 1447 0
	pushq	%r13	#
	.cfi_def_cfa_offset 16
	.cfi_offset 13, -16
	pushq	%r12	#
	.cfi_def_cfa_offset 24
	.cfi_offset 12, -24
	movl	%esi, %r12d	# exponent, exponent
	pushq	%rbp	#
	.cfi_def_cfa_offset 32
	.cfi_offset 6, -32
	movq	%rdi, %rbp	# matrix_obj, matrix_obj
	pushq	%rbx	#
	.cfi_def_cfa_offset 40
	.cfi_offset 3, -40
	subq	$8, %rsp	#,
	.cfi_def_cfa_offset 48
.LBB362:
	.loc 1 1454 0
	call	identity_matrix	#
.LVL714:
	.loc 1 1455 0
	movq	0(%rbp), %rdi	# matrix_obj_5(D)->data,
	.loc 1 1454 0
	movq	%rax, %rbx	#, identity_obj
.LVL715:
	.loc 1 1455 0
	movq	g_elements(%rip), %rax	# g_elements, tmp167
.LVL716:
	movq	(%rbx), %rsi	# identity_obj_8->data,
	leaq	0(,%rax,4), %rdx	#, D.19910
	call	memcmp	#
.LVL717:
	movl	%eax, %edx	#, tmp131
	movq	%rbx, %rax	# identity_obj, D.19908
	testl	%edx, %edx	# tmp131
	jne	.L340	#,
.LBE362:
	.loc 1 1479 0
	addq	$8, %rsp	#,
	.cfi_def_cfa_offset 40
	popq	%rbx	#
	.cfi_restore 3
	.cfi_def_cfa_offset 32
.LVL718:
	popq	%rbp	#
	.cfi_restore 6
	.cfi_def_cfa_offset 24
.LVL719:
	popq	%r12	#
	.cfi_restore 12
	.cfi_def_cfa_offset 16
.LVL720:
	popq	%r13	#
	.cfi_restore 13
	.cfi_def_cfa_offset 8
.LVL721:
.L337:
	ret
.LVL722:
	.p2align 4,,10
	.p2align 3
.L340:
	.cfi_def_cfa_offset 48
	.cfi_offset 3, -40
	.cfi_offset 6, -32
	.cfi_offset 12, -24
	.cfi_offset 13, -16
.LBB393:
	.loc 1 1459 0
	movl	%r12d, %r13d	# exponent, D.19913
.LBB363:
.LBB364:
	.loc 1 1448 0
	movq	%rbp, %rdi	# matrix_obj, D.19908
.LBE364:
.LBE363:
	.loc 1 1459 0
	shrl	%r13d	# D.19913
.LVL723:
.LBB381:
.LBB379:
	.loc 1 1448 0
	cmpl	$1, %r13d	#, D.19913
	je	.L321	#,
.LVL724:
.LBB365:
	.loc 1 1454 0
	call	identity_matrix	#
.LVL725:
	.loc 1 1455 0
	movq	0(%rbp), %rdi	# matrix_obj_5(D)->data,
	.loc 1 1454 0
	movq	%rax, %rbx	#, identity_obj
.LVL726:
	.loc 1 1455 0
	movq	g_elements(%rip), %rax	# g_elements, tmp169
.LVL727:
	movq	(%rbx), %rsi	# identity_obj_41->data,
	leaq	0(,%rax,4), %rdx	#, D.19910
	call	memcmp	#
.LVL728:
	movq	%rbx, %rdi	# identity_obj, D.19908
	testl	%eax, %eax	# tmp135
	jne	.L341	#,
.LVL729:
.L322:
.LBE365:
.LBE379:
.LBE381:
	.loc 1 1460 0
	cmpq	%rdi, %rbp	# D.19908, matrix_obj
	je	.L321	#,
.LBB382:
.LBB383:
	.loc 1 1421 0
	movl	rubbish_counter(%rip), %eax	# rubbish_counter,
	leal	1(%rax), %edx	#, tmp151
	movq	%rdi, pow_rubbish(,%rax,8)	# D.19908, pow_rubbish
	movl	%edx, rubbish_counter(%rip)	# tmp151, rubbish_counter
.LVL730:
.L321:
.LBE383:
.LBE382:
	.loc 1 1464 0
	andl	$1, %r12d	#, exponent
.LVL731:
.LBB384:
	.loc 1 1466 0
	movq	%rdi, %rsi	# D.19908,
.LBE384:
	.loc 1 1464 0
	je	.L339	#,
.LBB385:
	.loc 1 1472 0
	call	matrix_mul	#
.LVL732:
.LBB386:
.LBB387:
	.loc 1 1421 0
	movl	rubbish_counter(%rip), %edx	# rubbish_counter,
.LBE387:
.LBE386:
	.loc 1 1474 0
	movq	%rbp, %rdi	# matrix_obj,
	movq	%rax, %rsi	# passon_inside,
.LBB389:
.LBB388:
	.loc 1 1421 0
	leal	1(%rdx), %ecx	#, tmp158
	movq	%rax, pow_rubbish(,%rdx,8)	# passon_inside, pow_rubbish
	movl	%ecx, rubbish_counter(%rip)	# tmp158, rubbish_counter
.LVL733:
.L339:
.LBE388:
.LBE389:
	.loc 1 1474 0
	call	matrix_mul	#
.LVL734:
.LBB390:
.LBB391:
	.loc 1 1421 0
	movl	rubbish_counter(%rip), %edx	# rubbish_counter,
	leal	1(%rdx), %ecx	#, tmp161
	movq	%rax, pow_rubbish(,%rdx,8)	# passon, pow_rubbish
	movl	%ecx, rubbish_counter(%rip)	# tmp161, rubbish_counter
.LBE391:
.LBE390:
.LBE385:
.LBE393:
	.loc 1 1479 0
	addq	$8, %rsp	#,
	.cfi_remember_state
	.cfi_def_cfa_offset 40
	popq	%rbx	#
	.cfi_restore 3
	.cfi_def_cfa_offset 32
	popq	%rbp	#
	.cfi_restore 6
	.cfi_def_cfa_offset 24
.LVL735:
	popq	%r12	#
	.cfi_restore 12
	.cfi_def_cfa_offset 16
	popq	%r13	#
	.cfi_restore 13
	.cfi_def_cfa_offset 8
	jmp	.L337	#
.LVL736:
	.p2align 4,,10
	.p2align 3
.L341:
	.cfi_restore_state
.LBB394:
.LBB392:
.LBB380:
.LBB378:
	.loc 1 1459 0
	movl	%r12d, %esi	# exponent, D.19913
	movq	%rbp, %rdi	# matrix_obj,
	shrl	$2, %esi	#, D.19913
	call	m_pow	#
.LVL737:
	.loc 1 1460 0
	cmpq	%rax, %rbp	# ret, matrix_obj
	je	.L323	#,
.LVL738:
.LBB366:
.LBB367:
	.loc 1 1421 0
	movl	rubbish_counter(%rip), %edx	# rubbish_counter,
	leal	1(%rdx), %ecx	#, tmp138
	movq	%rax, pow_rubbish(,%rdx,8)	# ret, pow_rubbish
	movl	%ecx, rubbish_counter(%rip)	# tmp138, rubbish_counter
.LVL739:
.L323:
.LBE367:
.LBE366:
	.loc 1 1464 0
	andl	$1, %r13d	#, D.19913
.LVL740:
.LBB368:
	.loc 1 1466 0
	movq	%rax, %rsi	# ret,
	movq	%rax, %rdi	# ret,
.LBE368:
	.loc 1 1464 0
	je	.L338	#,
.LBB369:
	.loc 1 1472 0
	call	matrix_mul	#
.LVL741:
.LBB370:
.LBB371:
	.loc 1 1421 0
	movl	rubbish_counter(%rip), %edx	# rubbish_counter,
.LBE371:
.LBE370:
	.loc 1 1474 0
	movq	%rbp, %rdi	# matrix_obj,
	movq	%rax, %rsi	# passon_inside,
.LBB373:
.LBB372:
	.loc 1 1421 0
	leal	1(%rdx), %ecx	#, tmp145
	movq	%rax, pow_rubbish(,%rdx,8)	# passon_inside, pow_rubbish
	movl	%ecx, rubbish_counter(%rip)	# tmp145, rubbish_counter
.LVL742:
.L338:
.LBE372:
.LBE373:
	.loc 1 1474 0
	call	matrix_mul	#
.LVL743:
.LBB374:
.LBB375:
	.loc 1 1421 0
	movl	rubbish_counter(%rip), %edx	# rubbish_counter,
.LBE375:
.LBE374:
	.loc 1 1476 0
	movq	%rax, %rdi	# passon, D.19908
.LBB377:
.LBB376:
	.loc 1 1421 0
	leal	1(%rdx), %ecx	#, tmp148
	movq	%rax, pow_rubbish(,%rdx,8)	# passon, pow_rubbish
	movl	%ecx, rubbish_counter(%rip)	# tmp148, rubbish_counter
	jmp	.L322	#
.LBE376:
.LBE377:
.LBE369:
.LBE378:
.LBE380:
.LBE392:
.LBE394:
	.cfi_endproc
.LFE2296:
	.size	m_pow, .-m_pow
	.section	.text.unlikely
.LCOLDE34:
	.text
.LHOTE34:
	.section	.text.unlikely
.LCOLDB35:
	.text
.LHOTB35:
	.p2align 4,,15
	.globl	matrix_pow
	.type	matrix_pow, @function
matrix_pow:
.LFB2297:
	.loc 1 1484 0
	.cfi_startproc
.LVL744:
	.loc 1 1485 0
	cmpl	$1, %esi	#, exponent
	je	.L395	#,
	.loc 1 1490 0
	testl	%esi, %esi	# exponent
	je	.L394	#,
	.loc 1 1484 0
	pushq	%r15	#
	.cfi_def_cfa_offset 16
	.cfi_offset 15, -16
	pushq	%r14	#
	.cfi_def_cfa_offset 24
	.cfi_offset 14, -24
	pushq	%r13	#
	.cfi_def_cfa_offset 32
	.cfi_offset 13, -32
	movl	%esi, %r13d	# exponent, exponent
	pushq	%r12	#
	.cfi_def_cfa_offset 40
	.cfi_offset 12, -40
	pushq	%rbp	#
	.cfi_def_cfa_offset 48
	.cfi_offset 6, -48
	pushq	%rbx	#
	.cfi_def_cfa_offset 56
	.cfi_offset 3, -56
	movq	%rdi, %rbx	# matrix_obj, matrix_obj
	subq	$8, %rsp	#,
	.cfi_def_cfa_offset 64
	.loc 1 1495 0
	call	identity_matrix	#
.LVL745:
	.loc 1 1496 0
	movq	g_elements(%rip), %rsi	# g_elements, tmp292
	movq	(%rbx), %rdi	# matrix_obj_5(D)->data,
	leaq	0(,%rsi,4), %rdx	#, D.19979
	movq	(%rax), %rsi	# identity_obj_11->data,
	call	memcmp	#
.LVL746:
	testl	%eax, %eax	# tmp201
	je	.L396	#,
.LVL747:
.LBB451:
.LBB452:
	.loc 1 1454 0
	call	identity_matrix	#
.LVL748:
	.loc 1 1455 0
	movq	(%rbx), %rdi	# matrix_obj_5(D)->data,
	.loc 1 1454 0
	movq	%rax, %r12	#, identity_obj
.LVL749:
	.loc 1 1455 0
	movq	g_elements(%rip), %rax	# g_elements, tmp293
.LVL750:
	movq	(%r12), %rsi	# identity_obj_23->data,
	leaq	0(,%rax,4), %rdx	#, D.19979
	call	memcmp	#
.LVL751:
	testl	%eax, %eax	# tmp205
	jne	.L346	#,
	movl	rubbish_counter(%rip), %r13d	# rubbish_counter, i
.LVL752:
.L347:
	leal	-1(%r13), %ebp	#, ivtmp.778
.LVL753:
.LBE452:
.LBE451:
.LBB526:
.LBB527:
.LBB528:
	.loc 1 1426 0
	cmpl	$-1, %ebp	#, ivtmp.778
	je	.L397	#,
.LVL754:
	.p2align 4,,10
	.p2align 3
.L364:
	.loc 1 1428 0
	movl	%ebp, %r14d	# ivtmp.778, ivtmp.778
	movq	pow_rubbish(,%r14,8), %rbx	# pow_rubbish, D.19977
	testq	%rbx, %rbx	# D.19977
	je	.L360	#,
	cmpq	%rbx, %r12	# D.19977, D.19977
	je	.L360	#,
	movl	%r13d, %edx	# i, i
.L361:
.LVL755:
.LBB529:
	.loc 1 1430 0
	subl	$1, %edx	#, i
.LVL756:
	cmpl	$-1, %edx	#, i
	je	.L398	#,
.L363:
	.loc 1 1432 0
	movl	%edx, %ecx	# i, i
	cmpq	%rbx, pow_rubbish(,%rcx,8)	# D.19977, pow_rubbish
	jne	.L361	#,
	cmpl	%edx, %ebp	# i, ivtmp.778
	je	.L361	#,
	.loc 1 1434 0
	movq	$0, pow_rubbish(,%rcx,8)	#, pow_rubbish
	.loc 1 1430 0
	subl	$1, %edx	#, i
.LVL757:
	movq	pow_rubbish(,%r14,8), %rbx	# pow_rubbish, D.19977
.LVL758:
	cmpl	$-1, %edx	#, i
	jne	.L363	#,
	.p2align 4,,10
	.p2align 3
.L398:
.LBE529:
	.loc 1 1437 0
	movq	(%rbx), %rdi	# _222->data,
	call	free	#
.LVL759:
	.loc 1 1438 0
	movq	%rbx, %rdi	# D.19977,
	call	free	#
.LVL760:
	.loc 1 1439 0
	movq	$0, pow_rubbish(,%r14,8)	#, pow_rubbish
.L360:
	subl	$1, %ebp	#, ivtmp.778
.LVL761:
	.loc 1 1426 0
	cmpl	$-1, %ebp	#, ivtmp.778
	jne	.L364	#,
.L397:
.LBE528:
	.loc 1 1443 0
	movl	$0, rubbish_counter(%rip)	#, rubbish_counter
.LBE527:
.LBE526:
	.loc 1 1506 0
	addq	$8, %rsp	#,
	.cfi_remember_state
	.cfi_def_cfa_offset 56
	movq	%r12, %rax	# D.19977,
	popq	%rbx	#
	.cfi_restore 3
	.cfi_def_cfa_offset 48
	popq	%rbp	#
	.cfi_restore 6
	.cfi_def_cfa_offset 40
.LVL762:
	popq	%r12	#
	.cfi_restore 12
	.cfi_def_cfa_offset 32
.LVL763:
	popq	%r13	#
	.cfi_restore 13
	.cfi_def_cfa_offset 24
	popq	%r14	#
	.cfi_restore 14
	.cfi_def_cfa_offset 16
	popq	%r15	#
	.cfi_restore 15
	.cfi_def_cfa_offset 8
	ret
.LVL764:
.L396:
	.cfi_restore_state
	addq	$8, %rsp	#,
	.cfi_def_cfa_offset 56
	popq	%rbx	#
	.cfi_restore 3
	.cfi_def_cfa_offset 48
.LVL765:
	popq	%rbp	#
	.cfi_restore 6
	.cfi_def_cfa_offset 40
	popq	%r12	#
	.cfi_restore 12
	.cfi_def_cfa_offset 32
	popq	%r13	#
	.cfi_restore 13
	.cfi_def_cfa_offset 24
.LVL766:
	popq	%r14	#
	.cfi_restore 14
	.cfi_def_cfa_offset 16
	popq	%r15	#
	.cfi_restore 15
	.cfi_def_cfa_offset 8
.L394:
	.loc 1 1498 0
	jmp	identity_matrix	#
.LVL767:
.L395:
	.loc 1 1487 0
	jmp	cloned	#
.LVL768:
.L346:
	.cfi_def_cfa_offset 64
	.cfi_offset 3, -56
	.cfi_offset 6, -48
	.cfi_offset 12, -40
	.cfi_offset 13, -32
	.cfi_offset 14, -24
	.cfi_offset 15, -16
.LBB530:
.LBB525:
	.loc 1 1459 0
	movl	%r13d, %r12d	# exponent, D.19982
.LVL769:
.LBB453:
.LBB454:
	.loc 1 1448 0
	movq	%rbx, %rdi	# matrix_obj, D.19977
.LBE454:
.LBE453:
	.loc 1 1459 0
	shrl	%r12d	# D.19982
.LVL770:
.LBB511:
.LBB509:
	.loc 1 1448 0
	cmpl	$1, %r12d	#, D.19982
	je	.L348	#,
.LVL771:
.LBB455:
	.loc 1 1454 0
	call	identity_matrix	#
.LVL772:
	.loc 1 1455 0
	movq	(%rbx), %rdi	# matrix_obj_5(D)->data,
	.loc 1 1454 0
	movq	%rax, %rbp	#, identity_obj
.LVL773:
	.loc 1 1455 0
	movq	g_elements(%rip), %rax	# g_elements, tmp295
.LVL774:
	movq	0(%rbp), %rsi	# identity_obj_20->data,
	leaq	0(,%rax,4), %rdx	#, D.19979
	call	memcmp	#
.LVL775:
	movq	%rbp, %rdi	# identity_obj, D.19977
	testl	%eax, %eax	# tmp209
	jne	.L399	#,
.LVL776:
.L349:
.LBE455:
.LBE509:
.LBE511:
	.loc 1 1460 0
	cmpq	%rdi, %rbx	# D.19977, matrix_obj
	je	.L348	#,
.LBB512:
.LBB513:
	.loc 1 1421 0
	movl	rubbish_counter(%rip), %eax	# rubbish_counter,
	leal	1(%rax), %edx	#, tmp259
	movq	%rdi, pow_rubbish(,%rax,8)	# D.19977, pow_rubbish
	movl	%edx, rubbish_counter(%rip)	# tmp259, rubbish_counter
.L348:
.LBE513:
.LBE512:
	.loc 1 1464 0
	andl	$1, %r13d	#, exponent
.LVL777:
.LBB514:
	.loc 1 1466 0
	movq	%rdi, %rsi	# D.19977,
.LBE514:
	.loc 1 1464 0
	je	.L393	#,
.LBB515:
	.loc 1 1472 0
	call	matrix_mul	#
.LVL778:
.LBB516:
.LBB517:
	.loc 1 1421 0
	movl	rubbish_counter(%rip), %edx	# rubbish_counter,
.LBE517:
.LBE516:
	.loc 1 1474 0
	movq	%rbx, %rdi	# matrix_obj,
	movq	%rax, %rsi	# passon_inside,
.LBB519:
.LBB518:
	.loc 1 1421 0
	leal	1(%rdx), %ecx	#, tmp265
	movq	%rax, pow_rubbish(,%rdx,8)	# passon_inside, pow_rubbish
	movl	%ecx, rubbish_counter(%rip)	# tmp265, rubbish_counter
.LVL779:
.L393:
.LBE518:
.LBE519:
	.loc 1 1474 0
	call	matrix_mul	#
.LVL780:
.LBB520:
.LBB521:
	.loc 1 1421 0
	movl	rubbish_counter(%rip), %edx	# rubbish_counter,
.LBE521:
.LBE520:
	.loc 1 1476 0
	movq	%rax, %r12	# passon, D.19977
.LBB523:
.LBB522:
	.loc 1 1421 0
	leal	1(%rdx), %r13d	#, D.19982
	movq	%rax, pow_rubbish(,%rdx,8)	# passon, pow_rubbish
	movl	%r13d, rubbish_counter(%rip)	# D.19982, rubbish_counter
	jmp	.L347	#
.LVL781:
.L399:
.LBE522:
.LBE523:
.LBE515:
.LBB524:
.LBB510:
.LBB508:
	.loc 1 1459 0
	movl	%r13d, %r14d	# exponent, D.19982
.LBB456:
.LBB457:
	.loc 1 1448 0
	movq	%rbx, %rdi	# matrix_obj, D.19977
.LVL782:
.LBE457:
.LBE456:
	.loc 1 1459 0
	shrl	$2, %r14d	#, D.19982
.LVL783:
.LBB494:
.LBB492:
	.loc 1 1448 0
	cmpl	$1, %r14d	#, D.19982
	je	.L350	#,
.LVL784:
.LBB458:
	.loc 1 1454 0
	call	identity_matrix	#
.LVL785:
	.loc 1 1455 0
	movq	(%rbx), %rdi	# matrix_obj_5(D)->data,
	.loc 1 1454 0
	movq	%rax, %rbp	#, identity_obj
.LVL786:
	.loc 1 1455 0
	movq	g_elements(%rip), %rax	# g_elements, tmp297
.LVL787:
	movq	0(%rbp), %rsi	# identity_obj_66->data,
	leaq	0(,%rax,4), %rdx	#, D.19979
	call	memcmp	#
.LVL788:
	movq	%rbp, %rdi	# identity_obj, D.19977
	testl	%eax, %eax	# tmp213
	jne	.L400	#,
.LVL789:
.L351:
.LBE458:
.LBE492:
.LBE494:
	.loc 1 1460 0
	cmpq	%rdi, %rbx	# D.19977, matrix_obj
	je	.L350	#,
.LBB495:
.LBB496:
	.loc 1 1421 0
	movl	rubbish_counter(%rip), %eax	# rubbish_counter,
	leal	1(%rax), %edx	#, tmp246
	movq	%rdi, pow_rubbish(,%rax,8)	# D.19977, pow_rubbish
	movl	%edx, rubbish_counter(%rip)	# tmp246, rubbish_counter
.L350:
.LBE496:
.LBE495:
	.loc 1 1464 0
	andl	$1, %r12d	#, D.19982
.LVL790:
.LBB497:
	.loc 1 1466 0
	movq	%rdi, %rsi	# D.19977,
.LBE497:
	.loc 1 1464 0
	je	.L392	#,
.LBB498:
	.loc 1 1472 0
	call	matrix_mul	#
.LVL791:
.LBB499:
.LBB500:
	.loc 1 1421 0
	movl	rubbish_counter(%rip), %edx	# rubbish_counter,
.LBE500:
.LBE499:
	.loc 1 1474 0
	movq	%rbx, %rdi	# matrix_obj,
	movq	%rax, %rsi	# passon_inside,
.LBB502:
.LBB501:
	.loc 1 1421 0
	leal	1(%rdx), %ecx	#, tmp253
	movq	%rax, pow_rubbish(,%rdx,8)	# passon_inside, pow_rubbish
	movl	%ecx, rubbish_counter(%rip)	# tmp253, rubbish_counter
.LVL792:
.L392:
.LBE501:
.LBE502:
	.loc 1 1474 0
	call	matrix_mul	#
.LVL793:
.LBB503:
.LBB504:
	.loc 1 1421 0
	movl	rubbish_counter(%rip), %edx	# rubbish_counter,
.LBE504:
.LBE503:
	.loc 1 1476 0
	movq	%rax, %rdi	# passon, D.19977
.LBB506:
.LBB505:
	.loc 1 1421 0
	leal	1(%rdx), %ecx	#, tmp256
	movq	%rax, pow_rubbish(,%rdx,8)	# passon, pow_rubbish
	movl	%ecx, rubbish_counter(%rip)	# tmp256, rubbish_counter
	jmp	.L349	#
.LVL794:
.L400:
.LBE505:
.LBE506:
.LBE498:
.LBB507:
.LBB493:
.LBB491:
	.loc 1 1459 0
	movl	%r13d, %ebp	# exponent, D.19982
.LBB459:
.LBB460:
	.loc 1 1448 0
	movq	%rbx, %rdi	# matrix_obj, D.19977
.LVL795:
.LBE460:
.LBE459:
	.loc 1 1459 0
	shrl	$3, %ebp	#, D.19982
.LVL796:
.LBB477:
.LBB475:
	.loc 1 1448 0
	cmpl	$1, %ebp	#, D.19982
	je	.L352	#,
.LVL797:
.LBB461:
	.loc 1 1454 0
	call	identity_matrix	#
.LVL798:
	.loc 1 1455 0
	movq	(%rbx), %rdi	# matrix_obj_5(D)->data,
	.loc 1 1454 0
	movq	%rax, %r15	#, identity_obj
.LVL799:
	.loc 1 1455 0
	movq	g_elements(%rip), %rax	# g_elements, tmp299
.LVL800:
	movq	(%r15), %rsi	# identity_obj_88->data,
	leaq	0(,%rax,4), %rdx	#, D.19979
	call	memcmp	#
.LVL801:
	movq	%r15, %rdi	# identity_obj, D.19977
	testl	%eax, %eax	# tmp217
	jne	.L401	#,
.LVL802:
.L353:
.LBE461:
.LBE475:
.LBE477:
	.loc 1 1460 0
	cmpq	%rdi, %rbx	# D.19977, matrix_obj
	je	.L352	#,
.LBB478:
.LBB479:
	.loc 1 1421 0
	movl	rubbish_counter(%rip), %eax	# rubbish_counter,
	leal	1(%rax), %edx	#, tmp233
	movq	%rdi, pow_rubbish(,%rax,8)	# D.19977, pow_rubbish
	movl	%edx, rubbish_counter(%rip)	# tmp233, rubbish_counter
.LVL803:
.L352:
.LBE479:
.LBE478:
	.loc 1 1464 0
	andl	$1, %r14d	#, D.19982
.LVL804:
.LBB480:
	.loc 1 1466 0
	movq	%rdi, %rsi	# D.19977,
.LBE480:
	.loc 1 1464 0
	je	.L391	#,
.LBB481:
	.loc 1 1472 0
	call	matrix_mul	#
.LVL805:
.LBB482:
.LBB483:
	.loc 1 1421 0
	movl	rubbish_counter(%rip), %edx	# rubbish_counter,
.LBE483:
.LBE482:
	.loc 1 1474 0
	movq	%rbx, %rdi	# matrix_obj,
	movq	%rax, %rsi	# passon_inside,
.LBB485:
.LBB484:
	.loc 1 1421 0
	leal	1(%rdx), %ecx	#, tmp240
	movq	%rax, pow_rubbish(,%rdx,8)	# passon_inside, pow_rubbish
	movl	%ecx, rubbish_counter(%rip)	# tmp240, rubbish_counter
.LVL806:
.L391:
.LBE484:
.LBE485:
	.loc 1 1474 0
	call	matrix_mul	#
.LVL807:
.LBB486:
.LBB487:
	.loc 1 1421 0
	movl	rubbish_counter(%rip), %edx	# rubbish_counter,
.LBE487:
.LBE486:
	.loc 1 1476 0
	movq	%rax, %rdi	# passon, D.19977
.LBB489:
.LBB488:
	.loc 1 1421 0
	leal	1(%rdx), %ecx	#, tmp243
	movq	%rax, pow_rubbish(,%rdx,8)	# passon, pow_rubbish
	movl	%ecx, rubbish_counter(%rip)	# tmp243, rubbish_counter
	jmp	.L351	#
.LVL808:
.L401:
.LBE488:
.LBE489:
.LBE481:
.LBB490:
.LBB476:
.LBB474:
	.loc 1 1459 0
	movl	%ebp, %esi	# D.19982, D.19982
	movq	%rbx, %rdi	# matrix_obj,
.LVL809:
	shrl	%esi	# D.19982
	call	m_pow	#
.LVL810:
	movq	%rax, %rdi	#, ret
.LVL811:
	.loc 1 1460 0
	cmpq	%rax, %rbx	# ret, matrix_obj
	je	.L354	#,
.LVL812:
.LBB462:
.LBB463:
	.loc 1 1421 0
	movl	rubbish_counter(%rip), %eax	# rubbish_counter,
.LVL813:
	leal	1(%rax), %edx	#, tmp220
	movq	%rdi, pow_rubbish(,%rax,8)	# ret, pow_rubbish
	movl	%edx, rubbish_counter(%rip)	# tmp220, rubbish_counter
.LVL814:
.L354:
.LBE463:
.LBE462:
	.loc 1 1464 0
	andl	$1, %ebp	#, D.19982
.LVL815:
.LBB464:
	.loc 1 1466 0
	movq	%rdi, %rsi	# ret,
.LBE464:
	.loc 1 1464 0
	je	.L390	#,
.LVL816:
.LBB465:
	.loc 1 1472 0
	call	matrix_mul	#
.LVL817:
.LBB466:
.LBB467:
	.loc 1 1421 0
	movl	rubbish_counter(%rip), %edx	# rubbish_counter,
.LBE467:
.LBE466:
	.loc 1 1474 0
	movq	%rbx, %rdi	# matrix_obj,
	movq	%rax, %rsi	# passon_inside,
.LBB469:
.LBB468:
	.loc 1 1421 0
	leal	1(%rdx), %ecx	#, tmp227
	movq	%rax, pow_rubbish(,%rdx,8)	# passon_inside, pow_rubbish
	movl	%ecx, rubbish_counter(%rip)	# tmp227, rubbish_counter
.LVL818:
.L390:
.LBE468:
.LBE469:
	.loc 1 1474 0
	call	matrix_mul	#
.LVL819:
.LBB470:
.LBB471:
	.loc 1 1421 0
	movl	rubbish_counter(%rip), %edx	# rubbish_counter,
.LBE471:
.LBE470:
	.loc 1 1476 0
	movq	%rax, %rdi	# passon, D.19977
.LBB473:
.LBB472:
	.loc 1 1421 0
	leal	1(%rdx), %ecx	#, tmp230
	movq	%rax, pow_rubbish(,%rdx,8)	# passon, pow_rubbish
	movl	%ecx, rubbish_counter(%rip)	# tmp230, rubbish_counter
	jmp	.L353	#
.LBE472:
.LBE473:
.LBE465:
.LBE474:
.LBE476:
.LBE490:
.LBE491:
.LBE493:
.LBE507:
.LBE508:
.LBE510:
.LBE524:
.LBE525:
.LBE530:
	.cfi_endproc
.LFE2297:
	.size	matrix_pow, .-matrix_pow
	.section	.text.unlikely
.LCOLDE35:
	.text
.LHOTE35:
	.section	.text.unlikely
.LCOLDB36:
	.text
.LHOTB36:
	.p2align 4,,15
	.globl	get_sum
	.type	get_sum, @function
get_sum:
.LFB2298:
	.loc 1 1517 0
	.cfi_startproc
.LVL820:
	.loc 1 1518 0
	movl	16(%rdi), %eax	# matrix_obj_2(D)->sum, matrix_obj_2(D)->sum
	.loc 1 1519 0
	ret
	.cfi_endproc
.LFE2298:
	.size	get_sum, .-get_sum
	.section	.text.unlikely
.LCOLDE36:
	.text
.LHOTE36:
	.section	.text.unlikely
.LCOLDB37:
	.text
.LHOTB37:
	.p2align 4,,15
	.globl	get_trace
	.type	get_trace, @function
get_trace:
.LFB2299:
	.loc 1 1525 0
	.cfi_startproc
.LVL821:
	.loc 1 1527 0
	movl	g_width(%rip), %eax	# g_width, tmp104
	.loc 1 1528 0
	movq	(%rdi), %rcx	# matrix_obj_8(D)->data, matrix
	.loc 1 1527 0
	leal	1(%rax), %esi	#,
.LVL822:
.LBB531:
	.loc 1 1530 0
	movq	g_height(%rip), %rax	# g_height, g_height
.LVL823:
	leal	-1(%rax), %edx	#, i
.LVL824:
	testl	%eax, %eax	# g_height
	je	.L406	#,
	salq	$2, %rsi	#, D.19999
.LVL825:
	xorl	%eax, %eax	# total
.LVL826:
	.p2align 4,,10
	.p2align 3
.L405:
	subl	$1, %edx	#, i
.LVL827:
	.loc 1 1532 0
	addl	(%rcx), %eax	# MEM[base: matrix_25, offset: 0B], total
.LVL828:
	.loc 1 1533 0
	addq	%rsi, %rcx	# D.19999, matrix
.LVL829:
	.loc 1 1530 0
	cmpl	$-1, %edx	#, i
	jne	.L405	#,
	ret
.LVL830:
.L406:
.LBE531:
	.loc 1 1526 0
	xorl	%eax, %eax	# total
	.loc 1 1537 0
	ret
	.cfi_endproc
.LFE2299:
	.size	get_trace, .-get_trace
	.section	.text.unlikely
.LCOLDE37:
	.text
.LHOTE37:
	.section	.text.unlikely
.LCOLDB38:
	.text
.LHOTB38:
	.p2align 4,,15
	.globl	get_minimum
	.type	get_minimum, @function
get_minimum:
.LFB2300:
	.loc 1 1544 0
	.cfi_startproc
.LVL831:
	.loc 1 1545 0
	movl	8(%rdi), %eax	# matrix_obj_2(D)->min, matrix_obj_2(D)->min
	.loc 1 1546 0
	ret
	.cfi_endproc
.LFE2300:
	.size	get_minimum, .-get_minimum
	.section	.text.unlikely
.LCOLDE38:
	.text
.LHOTE38:
	.section	.text.unlikely
.LCOLDB39:
	.text
.LHOTB39:
	.p2align 4,,15
	.globl	get_maximum
	.type	get_maximum, @function
get_maximum:
.LFB2301:
	.loc 1 1552 0
	.cfi_startproc
.LVL832:
	.loc 1 1553 0
	movl	12(%rdi), %eax	# matrix_obj_2(D)->max, matrix_obj_2(D)->max
	.loc 1 1554 0
	ret
	.cfi_endproc
.LFE2301:
	.size	get_maximum, .-get_maximum
	.section	.text.unlikely
.LCOLDE39:
	.text
.LHOTE39:
	.section	.text.unlikely
.LCOLDB40:
	.text
.LHOTB40:
	.p2align 4,,15
	.globl	get_frequency
	.type	get_frequency, @function
get_frequency:
.LFB2303:
	.loc 1 1586 0
	.cfi_startproc
.LVL833:
	.loc 1 1588 0
	movq	24(%rdi), %rax	# matrix_obj_14(D)->occurances, D.20035
	testq	%rax, %rax	# D.20035
	je	.L412	#,
	.loc 1 1590 0
	movl	%esi, %esi	# value, D.20036
	movl	(%rax,%rsi,4), %eax	# *_19, D.20033
	.loc 1 1631 0
	ret
	.p2align 4,,10
	.p2align 3
.L412:
	.loc 1 1586 0
	pushq	%rbp	#
	.cfi_def_cfa_offset 16
	.cfi_offset 6, -16
	movq	%rsp, %rbp	#,
	.cfi_def_cfa_register 6
	pushq	%r15	#
	.cfi_offset 15, -24
	movl	%esi, %r15d	# value, value
	pushq	%r14	#
	pushq	%r13	#
	pushq	%r12	#
	pushq	%rbx	#
	subq	$24, %rsp	#,
	.cfi_offset 14, -32
	.cfi_offset 13, -40
	.cfi_offset 12, -48
	.cfi_offset 3, -56
	.loc 1 1593 0
	movq	g_nthreads(%rip), %rcx	# g_nthreads, D.20037
	movq	%rdi, -64(%rbp)	# matrix_obj, %sfp
	leaq	0(,%rcx,4), %rdi	#, D.20036
.LVL834:
	movq	%rcx, -56(%rbp)	# D.20037, %sfp
	call	malloc	#
.LVL835:
	.loc 1 1595 0
	movq	-56(%rbp), %rcx	# %sfp, D.20037
	.loc 1 1593 0
	movq	%rax, %rbx	#, result
.LVL836:
	.loc 1 1595 0
	leaq	22(,%rcx,8), %rax	#, tmp151
.LVL837:
	.loc 1 1597 0
	movq	%rcx, %rdi	# D.20037, D.20036
	.loc 1 1595 0
	andq	$-16, %rax	#, tmp155
	.loc 1 1597 0
	salq	$5, %rdi	#, D.20036
	.loc 1 1595 0
	subq	%rax, %rsp	# tmp155,
	.loc 1 1597 0
	call	malloc	#
.LVL838:
.LBB532:
	.loc 1 1599 0
	movq	-56(%rbp), %rcx	# %sfp, D.20037
.LBE532:
	.loc 1 1595 0
	movq	%rsp, %r12	#, tmp159
.LVL839:
	.loc 1 1597 0
	movq	%rax, %r13	#, args
.LVL840:
.LBB535:
	.loc 1 1599 0
	leal	-1(%rcx), %r14d	#, i
.LVL841:
	testl	%ecx, %ecx	# D.20037
	je	.L418	#,
.LVL842:
	movq	g_height(%rip), %rax	# g_height, D.20043
.LVL843:
	movl	%r14d, %r8d	# i, i
	xorl	%edi, %edi	# start_row
	movq	-64(%rbp), %rsi	# %sfp, matrix_obj
	cqto
	idivq	%rcx	# D.20037
.LVL844:
	.p2align 4,,10
	.p2align 3
.L415:
.LBB533:
	.loc 1 1601 0
	movl	%r8d, %ecx	# i, D.20037
	movq	%rdx, %r9	# tmp164, D.20037
	subq	%rcx, %r9	# D.20037, D.20037
	testq	%r9, %r9	# D.20037
	setg	%r9b	#, D.20039
	.loc 1 1602 0
	salq	$5, %rcx	#, D.20036
	addq	%r13, %rcx	# args, D.20041
	.loc 1 1601 0
	movzbl	%r9b, %r9d	# D.20039, D.20039
	addl	%eax, %r9d	# D.20040, this_rows
.LVL845:
	.loc 1 1602 0
	movl	%r8d, 24(%rcx)	# i, _45->id
.LBE533:
	.loc 1 1599 0
	subl	$1, %r8d	#, i
.LVL846:
.LBB534:
	.loc 1 1602 0
	movl	%edi, 20(%rcx)	# start_row, _45->start_row
	.loc 1 1610 0
	addl	%r9d, %edi	# this_rows, start_row
.LVL847:
	.loc 1 1602 0
	movq	%rsi, (%rcx)	# matrix_obj, _45->matrix_obj
	movq	%rbx, 8(%rcx)	# result, _45->result
	movl	%r9d, 16(%rcx)	# this_rows, _45->num_rows
	movl	%r15d, 28(%rcx)	# value, _45->value
.LBE534:
	.loc 1 1599 0
	cmpl	$-1, %r8d	#, i
	jne	.L415	#,
.LVL848:
	.p2align 4,,10
	.p2align 3
.L416:
.LBE535:
.LBB536:
	.loc 1 1615 0
	movl	%r14d, %eax	# i, D.20036
	xorl	%esi, %esi	#
	movl	$get_cmpe_worker, %edx	#,
	leaq	(%r12,%rax,8), %rdi	#, D.20042
	movq	%rax, %rcx	# D.20036, D.20036
	salq	$5, %rcx	#, D.20036
	addq	%r13, %rcx	# args, D.20041
	call	pthread_create	#
.LVL849:
	.loc 1 1613 0
	testl	%r14d, %r14d	# i
	leal	-1(%r14), %r14d	#, i
.LVL850:
	jne	.L416	#,
	movq	g_nthreads(%rip), %rax	# g_nthreads, g_nthreads
.LBE536:
.LBB537:
	.loc 1 1620 0
	xorl	%r13d, %r13d	# count
.LVL851:
	leal	-1(%rax), %r14d	#, i
.LVL852:
	testl	%eax, %eax	# g_nthreads
	je	.L414	#,
.LVL853:
	.p2align 4,,10
	.p2align 3
.L417:
	.loc 1 1622 0
	movl	%r14d, %r15d	# i, D.20036
	xorl	%esi, %esi	#
	movq	(%r12,%r15,8), %rdi	# *_67, *_67
	call	pthread_join	#
.LVL854:
	.loc 1 1623 0
	addl	(%rbx,%r15,4), %r13d	# *_71, count
.LVL855:
	.loc 1 1620 0
	testl	%r14d, %r14d	# i
	leal	-1(%r14), %r14d	#, i
.LVL856:
	jne	.L417	#,
.LVL857:
.L414:
.LBE537:
	.loc 1 1626 0
	movq	%rbx, %rdi	# result,
	call	free	#
.LVL858:
	.loc 1 1631 0
	leaq	-40(%rbp), %rsp	#,
.LVL859:
	.loc 1 1630 0
	movl	%r13d, %eax	# count, D.20033
	.loc 1 1631 0
	popq	%rbx	#
	.cfi_remember_state
	.cfi_restore 3
.LVL860:
	popq	%r12	#
	.cfi_restore 12
.LVL861:
	popq	%r13	#
	.cfi_restore 13
	popq	%r14	#
	.cfi_restore 14
	popq	%r15	#
	.cfi_restore 15
	popq	%rbp	#
	.cfi_restore 6
	.cfi_def_cfa 7, 8
	ret
.LVL862:
.L418:
	.cfi_restore_state
	.loc 1 1618 0
	xorl	%r13d, %r13d	# count
	jmp	.L414	#
	.cfi_endproc
.LFE2303:
	.size	get_frequency, .-get_frequency
	.section	.text.unlikely
.LCOLDE40:
	.text
.LHOTE40:
	.local	g_seed
	.comm	g_seed,4,4
	.data
	.align 8
	.type	g_nthreads, @object
	.size	g_nthreads, 8
g_nthreads:
	.quad	1
	.local	rubbish_counter
	.comm	rubbish_counter,4,4
	.local	pow_rubbish
	.comm	pow_rubbish,2040,64
	.local	g_elements
	.comm	g_elements,8,8
	.local	g_height
	.comm	g_height,8,8
	.local	g_width
	.comm	g_width,8,8
	.text
.Letext0:
	.section	.text.unlikely
.Letext_cold0:
	.file 2 "/usr/lib/gcc/x86_64-redhat-linux/4.9.2/include/stddef.h"
	.file 3 "/usr/include/bits/types.h"
	.file 4 "/usr/include/libio.h"
	.file 5 "/usr/include/stdio.h"
	.file 6 "/usr/include/bits/pthreadtypes.h"
	.file 7 "/usr/include/stdint.h"
	.file 8 "matrix.h"
	.file 9 "/usr/include/stdlib.h"
	.file 10 "/usr/include/pthread.h"
	.file 11 "/usr/include/string.h"
	.file 12 "<built-in>"
	.section	.note.GNU-stack,"",@progbits
